
isa_4b.bin:     file format binary


Disassembly of section .data:

00000000 <.data>:
       0:	0000                	unimp
       2:	3771                	jal	0xffffff8e
       4:	0100                	addi	s0,sp,128
       6:	1301                	addi	t1,t1,-32
       8:	c00c                	sw	a1,0(s0)
       a:	6f00                	flw	fs0,24(a4)
       c:	0010                	.insn	2, 0x0010
       e:	b702                	fsd	ft0,424(sp)
      10:	0200                	addi	s0,sp,256
      12:	9382                	jalr	t2
      14:	a200                	fsd	fs0,0(a2)
      16:	2380                	fld	fs0,0(a5)
      18:	0000                	unimp
      1a:	6780                	flw	fs0,8(a5)
      1c:	1000                	addi	s0,sp,32
      1e:	7300                	flw	fs0,32(a4)
      20:	6ff0dfff 23201100 	.insn	20, 0x1305e002eff01ffe1305e002232011006ff0dfff
      28:	1305e002 eff01ffe 
      30:	1305e002 
      34:	9ffd                	.insn	2, 0x9ffd
      36:	eff0                	fsw	fa2,92(a5)
      38:	e002                	fsw	ft0,0(sp)
      3a:	1305                	addi	t1,t1,-31
      3c:	1ffd                	addi	t6,t6,-1
      3e:	eff0                	fsw	fa2,92(a5)
      40:	0005                	c.nop	1
      42:	1305                	addi	t1,t1,-31
      44:	9ffc                	.insn	2, 0x9ffc
      46:	eff0                	fsw	fa2,92(a5)
      48:	1004                	addi	s1,sp,32
      4a:	1305                	addi	t1,t1,-31
      4c:	1ffc                	addi	a5,sp,1020
      4e:	eff0                	fsw	fa2,92(a5)
      50:	3005                	jal	0xfffff870
      52:	1305                	addi	t1,t1,-31
      54:	eff09ffb          	.insn	4, 0xeff09ffb
      58:	3005                	jal	0xfffff878
      5a:	1305                	addi	t1,t1,-31
      5c:	eff01ffb          	.insn	4, 0xeff01ffb
      60:	d000                	sw	s0,32(s0)
      62:	1305                	addi	t1,t1,-31
      64:	9ffa                	add	t6,t6,t5
      66:	eff0                	fsw	fa2,92(a5)
      68:	a000                	fsd	fs0,0(s0)
      6a:	1305                	addi	t1,t1,-31
      6c:	1ffa                	slli	t6,t6,0x3e
      6e:	eff0                	fsw	fa2,92(a5)
      70:	0100                	addi	s0,sp,128
      72:	8320                	.insn	2, 0x8320
      74:	0000                	unimp
      76:	6780                	flw	fs0,8(a5)
      78:	1100                	addi	s0,sp,160
      7a:	2320                	fld	fs0,64(a4)
      7c:	e002                	fsw	ft0,0(sp)
      7e:	1305                	addi	t1,t1,-31
      80:	dff8                	sw	a4,124(a5)
      82:	eff0                	fsw	fa2,92(a5)
      84:	e002                	fsw	ft0,0(sp)
      86:	1305                	addi	t1,t1,-31
      88:	5ff8                	lw	a4,124(a5)
      8a:	eff0                	fsw	fa2,92(a5)
      8c:	e002                	fsw	ft0,0(sp)
      8e:	1305                	addi	t1,t1,-31
      90:	eff0dff7          	.insn	4, 0xeff0dff7
      94:	5004                	lw	s1,32(s0)
      96:	1305                	addi	t1,t1,-31
      98:	eff05ff7          	.insn	4, 0xeff05ff7
      9c:	2005                	jal	0xbc
      9e:	1305                	addi	t1,t1,-31
      a0:	dff6                	sw	t4,252(sp)
      a2:	eff0                	fsw	fa2,92(a5)
      a4:	2005                	jal	0xc4
      a6:	1305                	addi	t1,t1,-31
      a8:	5ff6                	lw	t6,124(sp)
      aa:	eff0                	fsw	fa2,92(a5)
      ac:	f004                	fsw	fs1,32(s0)
      ae:	1305                	addi	t1,t1,-31
      b0:	dff5                	beqz	a5,0xac
      b2:	eff0                	fsw	fa2,92(a5)
      b4:	2005                	jal	0xd4
      b6:	1305                	addi	t1,t1,-31
      b8:	5ff5                	li	t6,-3
      ba:	eff0                	fsw	fa2,92(a5)
      bc:	d000                	sw	s0,32(s0)
      be:	1305                	addi	t1,t1,-31
      c0:	dff4                	sw	a3,124(a5)
      c2:	eff0                	fsw	fa2,92(a5)
      c4:	a000                	fsd	fs0,0(s0)
      c6:	1305                	addi	t1,t1,-31
      c8:	5ff4                	lw	a3,124(a5)
      ca:	eff0                	fsw	fa2,92(a5)
      cc:	0100                	addi	s0,sp,128
      ce:	8320                	.insn	2, 0x8320
      d0:	0000                	unimp
      d2:	6780                	flw	fs0,8(a5)
      d4:	000a                	c.slli	zero,0x2
      d6:	ef00                	fsw	fs0,24(a4)
      d8:	4018                	lw	a4,0(s0)
      da:	ef00                	fsw	fs0,24(a4)
      dc:	0024                	addi	s1,sp,8
      de:	ef00                	fsw	fs0,24(a4)
      e0:	0032                	c.slli	zero,0xc
      e2:	ef00                	fsw	fs0,24(a4)
      e4:	ef00003f ef00804a 	.insn	8, 0xef00804aef00003f
      ec:	ef00c057          	.insn	4, 0xef00c057
      f0:	ef00c063          	blt	ra,a6,0xfffff7d0
      f4:	0071                	c.nop	28
      f6:	ef00                	fsw	fs0,24(a4)
      f8:	807d                	srli	s0,s0,0x1f
      fa:	ef00                	fsw	fs0,24(a4)
      fc:	d021                	beqz	s0,0x3c
      fe:	ef00                	fsw	fs0,24(a4)
     100:	ef00500f          	.insn	4, 0xef00500f
     104:	502d                	c.li	zero,-21
     106:	ef00                	fsw	fs0,24(a4)
     108:	1039                	c.nop	-18
     10a:	ef00                	fsw	fs0,24(a4)
     10c:	ef00d043          	.insn	4, 0xef00d043
     110:	504c                	lw	a1,36(s0)
     112:	ef00                	fsw	fs0,24(a4)
     114:	ef009057          	.insn	4, 0xef009057
     118:	9060                	.insn	2, 0x9060
     11a:	ef00                	fsw	fs0,24(a4)
     11c:	ef00506b          	.insn	4, 0xef00506b
     120:	1074                	addi	a3,sp,44
     122:	ef00                	fsw	fs0,24(a4)
     124:	ef00d07b          	.insn	4, 0xef00d07b
     128:	4006                	.insn	2, 0x4006
     12a:	ef10                	fsw	fa2,24(a4)
     12c:	c010                	sw	a2,0(s0)
     12e:	ef10                	fsw	fa2,24(a4)
     130:	401a                	.insn	2, 0x401a
     132:	ef10                	fsw	fa2,24(a4)
     134:	ef10c023          	.insn	4, 0xef10c023
     138:	ef10802b          	.insn	4, 0xef10802b
     13c:	4034                	lw	a3,64(s0)
     13e:	ef10                	fsw	fa2,24(a4)
     140:	403c                	lw	a5,64(s0)
     142:	ef10                	fsw	fa2,24(a4)
     144:	8042                	c.mv	zero,a6
     146:	ef10                	fsw	fa2,24(a4)
     148:	0048                	addi	a0,sp,4
     14a:	ef10                	fsw	fa2,24(a4)
     14c:	ef104057          	.insn	4, 0xef104057
     150:	4066                	.insn	2, 0x4066
     152:	ef10                	fsw	fa2,24(a4)
     154:	0075                	c.nop	29
     156:	ef10                	fsw	fa2,24(a4)
     158:	ef10d003          	lhu	zero,-271(ra)
     15c:	d012                	sw	tp,32(sp)
     15e:	ef10                	fsw	fa2,24(a4)
     160:	d021                	beqz	s0,0xa0
     162:	ef10                	fsw	fa2,24(a4)
     164:	5026                	.insn	2, 0x5026
     166:	ef10                	fsw	fa2,24(a4)
     168:	d02a                	sw	a0,32(sp)
     16a:	ef10                	fsw	fa2,24(a4)
     16c:	ef10d033          	.insn	4, 0xef10d033
     170:	dfea                	sw	s10,252(sp)
     172:	6ff0                	flw	fa2,92(a5)
     174:	1100                	addi	s0,sp,160
     176:	2322                	fld	ft6,8(sp)
     178:	1006                	c.slli	zero,0x21
     17a:	1305                	addi	t1,t1,-31
     17c:	1fe9                	addi	t6,t6,-6
     17e:	eff0                	fsw	fa2,92(a5)
     180:	4006                	.insn	2, 0x4006
     182:	1305                	addi	t1,t1,-31
     184:	9fe8                	.insn	2, 0x9fe8
     186:	eff0                	fsw	fa2,92(a5)
     188:	4006                	.insn	2, 0x4006
     18a:	1305                	addi	t1,t1,-31
     18c:	1fe8                	addi	a0,sp,1020
     18e:	eff0                	fsw	fa2,92(a5)
     190:	e002                	fsw	ft0,0(sp)
     192:	1305                	addi	t1,t1,-31
     194:	eff09fe7          	.insn	4, 0xeff09fe7
     198:	e002                	fsw	ft0,0(sp)
     19a:	1305                	addi	t1,t1,-31
     19c:	eff01fe7          	.insn	4, 0xeff01fe7
     1a0:	e002                	fsw	ft0,0(sp)
     1a2:	1305                	addi	t1,t1,-31
     1a4:	9fe6                	add	t6,t6,s9
     1a6:	eff0                	fsw	fa2,92(a5)
     1a8:	0000                	unimp
     1aa:	9308                	.insn	2, 0x9308
     1ac:	0000                	unimp
     1ae:	00001303          	lh	t1,0(zero) # 0x0
     1b2:	73009303          	lh	t1,1840(ra)
     1b6:	b302                	fsd	ft0,416(sp)
     1b8:	5808                	lw	a0,48(s0)
     1ba:	6398                	flw	fa4,0(a5)
     1bc:	a000                	fsd	fs0,0(s0)
     1be:	9308                	.insn	2, 0x9308
     1c0:	2000                	fld	fs0,0(s0)
     1c2:	80001303          	lh	t1,-2048(zero) # 0xfffff800
     1c6:	73009303          	lh	t1,1840(ra)
     1ca:	b302                	fsd	ft0,416(sp)
     1cc:	5806                	lw	a6,96(sp)
     1ce:	639e                	flw	ft7,196(sp)
     1d0:	ffff                	.insn	2, 0xffff
     1d2:	b788                	fsd	fa0,40(a5)
     1d4:	0800                	addi	s0,sp,16
     1d6:	9388                	.insn	2, 0x9388
     1d8:	0000                	unimp
     1da:	ffff1303          	lh	t1,-1(t5)
     1de:	0300b783          	.insn	4, 0x0300b783
     1e2:	70009383          	lh	t2,1792(ra)
     1e6:	b302                	fsd	ft0,416(sp)
     1e8:	5806                	lw	a6,96(sp)
     1ea:	6390                	flw	fa2,0(a5)
     1ec:	0080                	addi	s0,sp,64
     1ee:	b788                	fsd	fa0,40(a5)
     1f0:	e8ff 9388 0080 3703 	.insn	22, 0x73009383f3ffb78300001303f3ff370300809388e8ff
     1f8:	f3ff 1303 0000 b783 
     200:	f3ff 9383 7300 
     206:	b302                	fsd	ft0,416(sp)
     208:	5804                	lw	s1,48(s0)
     20a:	6390                	flw	fa2,0(a5)
     20c:	0000                	unimp
     20e:	9308                	.insn	2, 0x9308
     210:	f0ff                	.insn	2, 0xf0ff
     212:	10001303          	lh	t1,256(zero) # 0x100
     216:	73009303          	lh	t1,1840(ra)
     21a:	b302                	fsd	ft0,416(sp)
     21c:	5802                	lw	a6,32(sp)
     21e:	6396                	flw	ft7,68(sp)
     220:	9308b003          	.insn	4, 0x9308b003
     224:	b000                	fsd	fs0,32(s0)
     226:	c0001303          	lh	t1,-1024(zero) # 0xfffffc00
     22a:	d0009303          	lh	t1,-768(ra)
     22e:	130e                	slli	t1,t1,0x23
     230:	7300                	flw	fs0,32(a4)
     232:	b302                	fsd	ft0,416(sp)
     234:	5300                	lw	s0,32(a4)
     236:	b302                	fsd	ft0,416(sp)
     238:	c201                	beqz	a2,0x238
     23a:	b382                	fsd	ft0,480(sp)
     23c:	5300                	lw	s0,32(a4)
     23e:	b382                	fsd	ft0,480(sp)
     240:	5800                	lw	s0,48(s0)
     242:	6394                	flw	fa3,0(a5)
     244:	c000                	sw	s0,0(s0)
     246:	6f00                	flw	fs0,24(a4)
     248:	eff01fe3          	bne	zero,t6,0x146
     24c:	8000                	.insn	2, 0x8000
     24e:	6f00                	flw	fs0,24(a4)
     250:	5fdd                	li	t6,-9
     252:	eff0                	fsw	fa2,92(a5)
     254:	4100                	lw	s0,0(a0)
     256:	8320                	.insn	2, 0x8320
     258:	0000                	unimp
     25a:	6780                	flw	fs0,8(a5)
     25c:	1100                	addi	s0,sp,160
     25e:	2322                	fld	ft6,8(sp)
     260:	1006                	c.slli	zero,0x21
     262:	1305                	addi	t1,t1,-31
     264:	9fda                	add	t6,t6,s6
     266:	eff0                	fsw	fa2,92(a5)
     268:	4006                	.insn	2, 0x4006
     26a:	1305                	addi	t1,t1,-31
     26c:	1fda                	slli	t6,t6,0x36
     26e:	eff0                	fsw	fa2,92(a5)
     270:	4006                	.insn	2, 0x4006
     272:	1305                	addi	t1,t1,-31
     274:	9fd9                	.insn	2, 0x9fd9
     276:	eff0                	fsw	fa2,92(a5)
     278:	9006                	c.add	zero,ra
     27a:	1305                	addi	t1,t1,-31
     27c:	1fd9                	addi	t6,t6,-10
     27e:	eff0                	fsw	fa2,92(a5)
     280:	e002                	fsw	ft0,0(sp)
     282:	1305                	addi	t1,t1,-31
     284:	9fd8                	.insn	2, 0x9fd8
     286:	eff0                	fsw	fa2,92(a5)
     288:	e002                	fsw	ft0,0(sp)
     28a:	1305                	addi	t1,t1,-31
     28c:	1fd8                	addi	a4,sp,1012
     28e:	eff0                	fsw	fa2,92(a5)
     290:	0000                	unimp
     292:	9308                	.insn	2, 0x9308
     294:	0000                	unimp
     296:	03001303          	lh	t1,48(zero) # 0x30
     29a:	9302                	jalr	t1
     29c:	5806                	lw	a6,96(sp)
     29e:	6396                	flw	ft7,68(sp)
     2a0:	a000                	fsd	fs0,0(s0)
     2a2:	9308                	.insn	2, 0x9308
     2a4:	2000                	fld	fs0,0(s0)
     2a6:	83001303          	lh	t1,-2000(zero) # 0xfffff830
     2aa:	9302                	jalr	t1
     2ac:	5804                	lw	s1,48(s0)
     2ae:	639e                	flw	ft7,196(sp)
     2b0:	ffff                	.insn	2, 0xffff
     2b2:	b788                	fsd	fa0,40(a5)
     2b4:	0800                	addi	s0,sp,16
     2b6:	9388                	.insn	2, 0x9388
     2b8:	ffff                	.insn	2, 0xffff
     2ba:	03003783          	.insn	4, 0x03003783
     2be:	03001303          	lh	t1,48(zero) # 0x30
     2c2:	9302                	jalr	t1
     2c4:	5804                	lw	s1,48(s0)
     2c6:	6392                	flw	ft7,4(sp)
     2c8:	0000                	unimp
     2ca:	b788                	fsd	fa0,40(a5)
     2cc:	e8ff 9388 0000 3783 	.insn	22, 0x639658029302f3ff1303f3ff378300009388e8ff
     2d4:	f3ff 1303 f3ff 9302 
     2dc:	5802 6396 0000 
     2e2:	9308                	.insn	2, 0x9308
     2e4:	f0ff                	.insn	2, 0xf0ff
     2e6:	13001303          	lh	t1,304(zero) # 0x130
     2ea:	9302                	jalr	t1
     2ec:	5800                	lw	s0,48(s0)
     2ee:	639e                	flw	ft7,196(sp)
     2f0:	2002                	fld	ft0,0(sp)
     2f2:	9308                	.insn	2, 0x9308
     2f4:	b000                	fsd	fs0,32(s0)
     2f6:	c3001303          	lh	t1,-976(zero) # 0xfffffc30
     2fa:	9302                	jalr	t1
     2fc:	b200                	fsd	fs0,32(a2)
     2fe:	9382                	jalr	t2
     300:	5800                	lw	s0,48(s0)
     302:	6394                	flw	fa3,0(a5)
     304:	c000                	sw	s0,0(s0)
     306:	6f00                	flw	fs0,24(a4)
     308:	eff01fd7          	.insn	4, 0xeff01fd7
     30c:	8000                	.insn	2, 0x8000
     30e:	6f00                	flw	fs0,24(a4)
     310:	5fd1                	li	t6,-12
     312:	eff0                	fsw	fa2,92(a5)
     314:	4100                	lw	s0,0(a0)
     316:	8320                	.insn	2, 0x8320
     318:	0000                	unimp
     31a:	6780                	flw	fs0,8(a5)
     31c:	1100                	addi	s0,sp,160
     31e:	2322                	fld	ft6,8(sp)
     320:	13053007          	fld	ft0,304(a0)
     324:	9fce                	add	t6,t6,s3
     326:	eff0                	fsw	fa2,92(a5)
     328:	13055007          	.insn	4, 0x13055007
     32c:	1fce                	slli	t6,t6,0x33
     32e:	eff0                	fsw	fa2,92(a5)
     330:	2006                	fld	ft0,64(sp)
     332:	1305                	addi	t1,t1,-31
     334:	9fcd                	.insn	2, 0x9fcd
     336:	eff0                	fsw	fa2,92(a5)
     338:	e002                	fsw	ft0,0(sp)
     33a:	1305                	addi	t1,t1,-31
     33c:	1fcd                	addi	t6,t6,-13
     33e:	eff0                	fsw	fa2,92(a5)
     340:	e002                	fsw	ft0,0(sp)
     342:	1305                	addi	t1,t1,-31
     344:	9fcc                	.insn	2, 0x9fcc
     346:	eff0                	fsw	fa2,92(a5)
     348:	e002                	fsw	ft0,0(sp)
     34a:	1305                	addi	t1,t1,-31
     34c:	1fcc                	addi	a1,sp,1012
     34e:	eff0                	fsw	fa2,92(a5)
     350:	0000                	unimp
     352:	9308                	.insn	2, 0x9308
     354:	0000                	unimp
     356:	00001303          	lh	t1,0(zero) # 0x0
     35a:	73409303          	lh	t1,1844(ra)
     35e:	b302                	fsd	ft0,416(sp)
     360:	5808                	lw	a0,48(s0)
     362:	6396                	flw	ft7,68(sp)
     364:	6000                	flw	fs0,0(s0)
     366:	9308                	.insn	2, 0x9308
     368:	8000                	.insn	2, 0x8000
     36a:	20001303          	lh	t1,512(zero) # 0x200
     36e:	73409303          	lh	t1,1844(ra)
     372:	b302                	fsd	ft0,416(sp)
     374:	5806                	lw	a6,96(sp)
     376:	639c                	flw	fa5,0(a5)
     378:	0000                	unimp
     37a:	b788                	fsd	fa0,40(a5)
     37c:	0800                	addi	s0,sp,16
     37e:	9388                	.insn	2, 0x9388
     380:	ffff                	.insn	2, 0xffff
     382:	0300b783          	.insn	4, 0x0300b783
     386:	70409383          	lh	t2,1796(ra)
     38a:	b302                	fsd	ft0,416(sp)
     38c:	5806                	lw	a6,96(sp)
     38e:	6390                	flw	fa2,0(a5)
     390:	ff7f                	.insn	2, 0xff7f
     392:	b788                	fsd	fa0,40(a5)
     394:	1800                	addi	s0,sp,48
     396:	9388                	.insn	2, 0x9388
     398:	0080                	addi	s0,sp,64
     39a:	03003703          	.insn	4, 0x03003703
     39e:	00001303          	lh	t1,0(zero) # 0x0
     3a2:	f3ffb783          	.insn	4, 0xf3ffb783
     3a6:	73409383          	lh	t2,1844(ra)
     3aa:	b302                	fsd	ft0,416(sp)
     3ac:	5804                	lw	s1,48(s0)
     3ae:	6390                	flw	fa2,0(a5)
     3b0:	e0ff 9308 f0ff 1303 	.insn	22, 0x300063965802b3027340930310001303f0ff9308e0ff
     3b8:	1000 9303 7340 b302 
     3c0:	5802 6396 3000 
     3c6:	9308                	.insn	2, 0x9308
     3c8:	9005                	srli	s0,s0,0x21
     3ca:	d0001303          	lh	t1,-768(zero) # 0xfffffd00
     3ce:	30009303          	lh	t1,768(ra)
     3d2:	130e                	slli	t1,t1,0x23
     3d4:	7340                	flw	fs0,36(a4)
     3d6:	b302                	fsd	ft0,416(sp)
     3d8:	5340                	lw	s0,36(a4)
     3da:	b302                	fsd	ft0,416(sp)
     3dc:	c241                	beqz	a2,0x45c
     3de:	b382                	fsd	ft0,480(sp)
     3e0:	5340                	lw	s0,36(a4)
     3e2:	b382                	fsd	ft0,480(sp)
     3e4:	5800                	lw	s0,48(s0)
     3e6:	6394                	flw	fa3,0(a5)
     3e8:	c000                	sw	s0,0(s0)
     3ea:	6f00                	flw	fs0,24(a4)
     3ec:	dfc8                	sw	a0,60(a5)
     3ee:	eff0                	fsw	fa2,92(a5)
     3f0:	8000                	.insn	2, 0x8000
     3f2:	6f00                	flw	fs0,24(a4)
     3f4:	eff01fc3          	.insn	4, 0xeff01fc3
     3f8:	4100                	lw	s0,0(a0)
     3fa:	8320                	.insn	2, 0x8320
     3fc:	0000                	unimp
     3fe:	6780                	flw	fs0,8(a5)
     400:	1100                	addi	s0,sp,160
     402:	2322                	fld	ft6,8(sp)
     404:	1006                	c.slli	zero,0x21
     406:	1305                	addi	t1,t1,-31
     408:	5fc0                	lw	s0,60(a5)
     40a:	eff0                	fsw	fa2,92(a5)
     40c:	e006                	fsw	ft1,0(sp)
     40e:	1305                	addi	t1,t1,-31
     410:	eff0dfbf 13054006 	.insn	8, 0x13054006eff0dfbf
     418:	eff05fbf 1305e002 	.insn	8, 0x1305e002eff05fbf
     420:	dfbe                	sw	a5,252(sp)
     422:	eff0                	fsw	fa2,92(a5)
     424:	e002                	fsw	ft0,0(sp)
     426:	1305                	addi	t1,t1,-31
     428:	5fbe                	lw	t6,236(sp)
     42a:	eff0                	fsw	fa2,92(a5)
     42c:	e002                	fsw	ft0,0(sp)
     42e:	1305                	addi	t1,t1,-31
     430:	dfbd                	beqz	a5,0x3ae
     432:	eff0                	fsw	fa2,92(a5)
     434:	b718000f          	.insn	4, 0xb718000f
     438:	08f0                	addi	a2,sp,92
     43a:	9388                	.insn	2, 0x9388
     43c:	01ff 3703 03f0 1303 	.insn	10, 0x0f0f130303f0370301ff
     444:	0f0f 
     446:	f3f0b713          	sltiu	a4,ra,-193
     44a:	73009383          	lh	t2,1840(ra)
     44e:	b372                	fsd	ft8,416(sp)
     450:	5806                	lw	a6,96(sp)
     452:	6398                	flw	fa4,0(a5)
     454:	00f0                	addi	a2,sp,76
     456:	b7f8                	fsd	fa4,232(a5)
     458:	0800                	addi	s0,sp,16
     45a:	9388                	.insn	2, 0x9388
     45c:	0ff0                	addi	a2,sp,988
     45e:	f30037f3          	csrrc	a5,0xf30,zero
     462:	f0f01303          	lh	t1,-241(zero) # 0xffffff0f
     466:	030fb7f3          	csrrc	a5,0x30,t6
     46a:	73009383          	lh	t2,1840(ra)
     46e:	b372                	fsd	ft8,416(sp)
     470:	5804                	lw	s1,48(s0)
     472:	6398                	flw	fa4,0(a5)
     474:	0000                	unimp
     476:	9308                	.insn	2, 0x9308
     478:	0000                	unimp
     47a:	ffff1303          	lh	t1,-1(t5)
     47e:	0300b783          	.insn	4, 0x0300b783
     482:	70009383          	lh	t2,1792(ra)
     486:	b372                	fsd	ft8,416(sp)
     488:	5802                	lw	a6,32(sp)
     48a:	639c                	flw	fa5,0(a5)
     48c:	0ff0                	addi	a2,sp,988
     48e:	b708                	fsd	fa0,40(a4)
     490:	0800                	addi	s0,sp,16
     492:	9388                	.insn	2, 0x9388
     494:	370310ff 1303f3f0 	.insn	12, 0xb703ffff1303f3f0370310ff
     49c:	b703ffff 
     4a0:	0300                	addi	s0,sp,384
     4a2:	0ff09383          	lh	t2,255(ra)
     4a6:	37fe                	fld	fa5,504(sp)
     4a8:	fe00                	fsw	fs0,56(a2)
     4aa:	130e                	slli	t1,t1,0x23
     4ac:	7300                	flw	fs0,32(a4)
     4ae:	b372                	fsd	ft8,416(sp)
     4b0:	c201                	beqz	a2,0x4b0
     4b2:	b3f2                	fsd	ft8,480(sp)
     4b4:	5300                	lw	s0,32(a4)
     4b6:	b3f2                	fsd	ft8,480(sp)
     4b8:	5800                	lw	s0,48(s0)
     4ba:	6394                	flw	fa3,0(a5)
     4bc:	c000                	sw	s0,0(s0)
     4be:	6f00                	flw	fs0,24(a4)
     4c0:	eff09fbb          	.insn	4, 0xeff09fbb
     4c4:	8000                	.insn	2, 0x8000
     4c6:	6f00                	flw	fs0,24(a4)
     4c8:	dfb5                	beqz	a5,0x444
     4ca:	eff0                	fsw	fa2,92(a5)
     4cc:	4100                	lw	s0,0(a0)
     4ce:	8320                	.insn	2, 0x8320
     4d0:	0000                	unimp
     4d2:	6780                	flw	fs0,8(a5)
     4d4:	1100                	addi	s0,sp,160
     4d6:	2322                	fld	ft6,8(sp)
     4d8:	1006                	c.slli	zero,0x21
     4da:	1305                	addi	t1,t1,-31
     4dc:	eff01fb3          	.insn	4, 0xeff01fb3
     4e0:	e006                	fsw	ft1,0(sp)
     4e2:	1305                	addi	t1,t1,-31
     4e4:	9fb2                	add	t6,t6,a2
     4e6:	eff0                	fsw	fa2,92(a5)
     4e8:	4006                	.insn	2, 0x4006
     4ea:	1305                	addi	t1,t1,-31
     4ec:	1fb2                	slli	t6,t6,0x2c
     4ee:	eff0                	fsw	fa2,92(a5)
     4f0:	9006                	c.add	zero,ra
     4f2:	1305                	addi	t1,t1,-31
     4f4:	9fb1                	.insn	2, 0x9fb1
     4f6:	eff0                	fsw	fa2,92(a5)
     4f8:	e002                	fsw	ft0,0(sp)
     4fa:	1305                	addi	t1,t1,-31
     4fc:	1fb1                	addi	t6,t6,-20
     4fe:	eff0                	fsw	fa2,92(a5)
     500:	e002                	fsw	ft0,0(sp)
     502:	1305                	addi	t1,t1,-31
     504:	9fb0                	.insn	2, 0x9fb0
     506:	eff0                	fsw	fa2,92(a5)
     508:	01ff b708 08f0 9388 	.insn	10, 0x01ff938808f0b70801ff
     510:	01ff 
     512:	03f03703          	.insn	4, 0x03f03703
     516:	f3f01303          	lh	t1,-193(zero) # 0xffffff3f
     51a:	9372                	add	t1,t1,t3
     51c:	5806                	lw	a6,96(sp)
     51e:	6390                	flw	fa2,0(a5)
     520:	f000                	fsw	fs0,32(s0)
     522:	9308                	.insn	2, 0x9308
     524:	ff00                	fsw	fs0,56(a4)
     526:	f30f3703          	.insn	4, 0xf30f3703
     52a:	f3701303          	lh	t1,-201(zero) # 0xffffff37
     52e:	9372                	add	t1,t1,t3
     530:	5804                	lw	s1,48(s0)
     532:	6396                	flw	ft7,68(sp)
     534:	0000                	unimp
     536:	9308                	.insn	2, 0x9308
     538:	0ff0                	addi	a2,sp,988
     53a:	f30037f3          	csrrc	a5,0xf30,zero
     53e:	030f1303          	lh	t1,48(t5)
     542:	9372                	add	t1,t1,t3
     544:	5802                	lw	a6,32(sp)
     546:	639c                	flw	fa5,0(a5)
     548:	0000                	unimp
     54a:	9308                	.insn	2, 0x9308
     54c:	01ff 3703 03f0 1303 	.insn	10, 0x0300130303f0370301ff
     554:	0300 
     556:	9302                	jalr	t1
     558:	93f2020f          	.insn	4, 0x93f2020f
     55c:	5802                	lw	a6,32(sp)
     55e:	6390                	flw	fa2,0(a5)
     560:	f000                	fsw	fs0,32(s0)
     562:	9308                	.insn	2, 0x9308
     564:	0ff0                	addi	a2,sp,988
     566:	f30037f3          	csrrc	a5,0xf30,zero
     56a:	f3701303          	lh	t1,-201(zero) # 0xffffff37
     56e:	9372                	add	t1,t1,t3
     570:	f2f0                	fsw	fa2,100(a3)
     572:	93f2                	add	t2,t2,t3
     574:	5800                	lw	s0,48(s0)
     576:	6394                	flw	fa3,0(a5)
     578:	c000                	sw	s0,0(s0)
     57a:	6f00                	flw	fs0,24(a4)
     57c:	eff0dfaf          	.insn	4, 0xeff0dfaf
     580:	8000                	.insn	2, 0x8000
     582:	6f00                	flw	fs0,24(a4)
     584:	1faa                	slli	t6,t6,0x2a
     586:	eff0                	fsw	fa2,92(a5)
     588:	4100                	lw	s0,0(a0)
     58a:	8320                	.insn	2, 0x8320
     58c:	0000                	unimp
     58e:	6780                	flw	fs0,8(a5)
     590:	1100                	addi	s0,sp,160
     592:	2322                	fld	ft6,8(sp)
     594:	f006                	fsw	ft1,32(sp)
     596:	1305                	addi	t1,t1,-31
     598:	eff05fa7          	.insn	4, 0xeff05fa7
     59c:	13052007          	flw	ft0,304(a0)
     5a0:	dfa6                	sw	s1,252(sp)
     5a2:	eff0                	fsw	fa2,92(a5)
     5a4:	e002                	fsw	ft0,0(sp)
     5a6:	1305                	addi	t1,t1,-31
     5a8:	5fa6                	lw	t6,104(sp)
     5aa:	eff0                	fsw	fa2,92(a5)
     5ac:	e002                	fsw	ft0,0(sp)
     5ae:	1305                	addi	t1,t1,-31
     5b0:	dfa5                	beqz	a5,0x528
     5b2:	eff0                	fsw	fa2,92(a5)
     5b4:	e002                	fsw	ft0,0(sp)
     5b6:	1305                	addi	t1,t1,-31
     5b8:	5fa5                	li	t6,-23
     5ba:	eff0                	fsw	fa2,92(a5)
     5bc:	e002                	fsw	ft0,0(sp)
     5be:	1305                	addi	t1,t1,-31
     5c0:	dfa4                	sw	s1,120(a5)
     5c2:	eff0                	fsw	fa2,92(a5)
     5c4:	b70810ff 9388f8f0 	.insn	12, 0x370301ff9388f8f0b70810ff
     5cc:	370301ff 
     5d0:	03f0                	addi	a2,sp,460
     5d2:	0f0f1303          	lh	t1,240(t5)
     5d6:	f3f0b713          	sltiu	a4,ra,-193
     5da:	73009383          	lh	t2,1840(ra)
     5de:	b362                	fsd	fs8,416(sp)
     5e0:	5806                	lw	a6,96(sp)
     5e2:	639a                	flw	ft7,132(sp)
     5e4:	fff0                	fsw	fa2,124(a5)
     5e6:	b7f8                	fsd	fa4,232(a5)
     5e8:	9388f80f          	.insn	4, 0x9388f80f
     5ec:	0ff0                	addi	a2,sp,988
     5ee:	f30037f3          	csrrc	a5,0xf30,zero
     5f2:	f0f01303          	lh	t1,-241(zero) # 0xffffff0f
     5f6:	030fb7f3          	csrrc	a5,0x30,t6
     5fa:	73009383          	lh	t2,1840(ra)
     5fe:	b362                	fsd	fs8,416(sp)
     600:	5804                	lw	s1,48(s0)
     602:	639a                	flw	ft7,132(sp)
     604:	ffff                	.insn	2, 0xffff
     606:	b788                	fsd	fa0,40(a5)
     608:	0800                	addi	s0,sp,16
     60a:	9388                	.insn	2, 0x9388
     60c:	0000                	unimp
     60e:	ffff1303          	lh	t1,-1(t5)
     612:	0300b783          	.insn	4, 0x0300b783
     616:	70009383          	lh	t2,1792(ra)
     61a:	b362                	fsd	fs8,416(sp)
     61c:	5802                	lw	a6,32(sp)
     61e:	639c                	flw	fa5,0(a5)
     620:	b70810ff 9388f8f0 	.insn	12, 0x370310ff9388f8f0b70810ff
     628:	370310ff 
     62c:	f3f0                	fsw	fa2,100(a5)
     62e:	00ff1303          	lh	t1,15(t5)
     632:	0300b703          	.insn	4, 0x0300b703
     636:	0ff09383          	lh	t2,255(ra)
     63a:	37fe                	fld	fa5,504(sp)
     63c:	fe00                	fsw	fs0,56(a2)
     63e:	130e                	slli	t1,t1,0x23
     640:	7300                	flw	fs0,32(a4)
     642:	b362                	fsd	fs8,416(sp)
     644:	c201                	beqz	a2,0x644
     646:	b3e2                	fsd	fs8,480(sp)
     648:	5300                	lw	s0,32(a4)
     64a:	b3e2                	fsd	fs8,480(sp)
     64c:	5800                	lw	s0,48(s0)
     64e:	6394                	flw	fa3,0(a5)
     650:	c000                	sw	s0,0(s0)
     652:	6f00                	flw	fs0,24(a4)
     654:	5fa2                	lw	t6,40(sp)
     656:	eff0                	fsw	fa2,92(a5)
     658:	8000                	.insn	2, 0x8000
     65a:	6f00                	flw	fs0,24(a4)
     65c:	9f9c                	.insn	2, 0x9f9c
     65e:	eff0                	fsw	fa2,92(a5)
     660:	4100                	lw	s0,0(a0)
     662:	8320                	.insn	2, 0x8320
     664:	0000                	unimp
     666:	6780                	flw	fs0,8(a5)
     668:	1100                	addi	s0,sp,160
     66a:	2322                	fld	ft6,8(sp)
     66c:	f006                	fsw	ft1,32(sp)
     66e:	1305                	addi	t1,t1,-31
     670:	df99                	beqz	a5,0x58e
     672:	eff0                	fsw	fa2,92(a5)
     674:	13052007          	flw	ft0,304(a0)
     678:	5f99                	li	t6,-26
     67a:	eff0                	fsw	fa2,92(a5)
     67c:	9006                	c.add	zero,ra
     67e:	1305                	addi	t1,t1,-31
     680:	df98                	sw	a4,56(a5)
     682:	eff0                	fsw	fa2,92(a5)
     684:	e002                	fsw	ft0,0(sp)
     686:	1305                	addi	t1,t1,-31
     688:	5f98                	lw	a4,56(a5)
     68a:	eff0                	fsw	fa2,92(a5)
     68c:	e002                	fsw	ft0,0(sp)
     68e:	1305                	addi	t1,t1,-31
     690:	eff0df97          	auipc	t6,0xeff0d
     694:	e002                	fsw	ft0,0(sp)
     696:	1305                	addi	t1,t1,-31
     698:	eff05f97          	auipc	t6,0xeff05
     69c:	f0f0                	fsw	fa2,100(s1)
     69e:	9308                	.insn	2, 0x9308
     6a0:	01ff 3703 f3f0 1303 	.insn	10, 0xf3f01303f3f0370301ff
     6a8:	f3f0 
     6aa:	9362                	add	t1,t1,s8
     6ac:	5806                	lw	a6,96(sp)
     6ae:	6396                	flw	ft7,68(sp)
     6b0:	ff00                	fsw	fs0,56(a4)
     6b2:	b708                	fsd	fa0,40(a4)
     6b4:	f87f                	.insn	2, 0xf87f
     6b6:	9388                	.insn	2, 0x9388
     6b8:	ff00                	fsw	fs0,56(a4)
     6ba:	f30f3703          	.insn	4, 0xf30f3703
     6be:	f3701303          	lh	t1,-201(zero) # 0xffffff37
     6c2:	9362                	add	t1,t1,s8
     6c4:	5804                	lw	s1,48(s0)
     6c6:	639a                	flw	ft7,132(sp)
     6c8:	0ff0                	addi	a2,sp,988
     6ca:	b7f8                	fsd	fa4,232(a5)
     6cc:	9388f80f          	.insn	4, 0x9388f80f
     6d0:	0ff0                	addi	a2,sp,988
     6d2:	f30037f3          	csrrc	a5,0xf30,zero
     6d6:	030f1303          	lh	t1,48(t5)
     6da:	9362                	add	t1,t1,s8
     6dc:	5802                	lw	a6,32(sp)
     6de:	639e                	flw	ft7,196(sp)
     6e0:	01ff b708 08ff 9388 	.insn	10, 0x01ff938808ffb70801ff
     6e8:	01ff 
     6ea:	03f03703          	.insn	4, 0x03f03703
     6ee:	03001303          	lh	t1,48(zero) # 0x30
     6f2:	9302                	jalr	t1
     6f4:	93e2020f          	.insn	4, 0x93e2020f
     6f8:	5802                	lw	a6,32(sp)
     6fa:	6390                	flw	fa2,0(a5)
     6fc:	f0f0                	fsw	fa2,100(s1)
     6fe:	9308                	.insn	2, 0x9308
     700:	0ff0                	addi	a2,sp,988
     702:	f30037f3          	csrrc	a5,0xf30,zero
     706:	f3701303          	lh	t1,-201(zero) # 0xffffff37
     70a:	9362                	add	t1,t1,s8
     70c:	f2f0                	fsw	fa2,100(a3)
     70e:	93e2                	add	t2,t2,s8
     710:	5800                	lw	s0,48(s0)
     712:	6394                	flw	fa3,0(a5)
     714:	c000                	sw	s0,0(s0)
     716:	6f00                	flw	fs0,24(a4)
     718:	1f96                	slli	t6,t6,0x25
     71a:	eff0                	fsw	fa2,92(a5)
     71c:	8000                	.insn	2, 0x8000
     71e:	6f00                	flw	fs0,24(a4)
     720:	5f90                	lw	a2,56(a5)
     722:	eff0                	fsw	fa2,92(a5)
     724:	4100                	lw	s0,0(a0)
     726:	8320                	.insn	2, 0x8320
     728:	0000                	unimp
     72a:	6780                	flw	fs0,8(a5)
     72c:	1100                	addi	s0,sp,160
     72e:	2322                	fld	ft6,8(sp)
     730:	13058007          	.insn	4, 0x13058007
     734:	9f8d                	.insn	2, 0x9f8d
     736:	eff0                	fsw	fa2,92(a5)
     738:	f006                	fsw	ft1,32(sp)
     73a:	1305                	addi	t1,t1,-31
     73c:	1f8d                	addi	t6,t6,-29 # 0xeff0567b
     73e:	eff0                	fsw	fa2,92(a5)
     740:	13052007          	flw	ft0,304(a0)
     744:	9f8c                	.insn	2, 0x9f8c
     746:	eff0                	fsw	fa2,92(a5)
     748:	e002                	fsw	ft0,0(sp)
     74a:	1305                	addi	t1,t1,-31
     74c:	1f8c                	addi	a1,sp,1008
     74e:	eff0                	fsw	fa2,92(a5)
     750:	e002                	fsw	ft0,0(sp)
     752:	1305                	addi	t1,t1,-31
     754:	eff09f8b          	.insn	4, 0xeff09f8b
     758:	e002                	fsw	ft0,0(sp)
     75a:	1305                	addi	t1,t1,-31
     75c:	eff01f8b          	.insn	4, 0xeff01f8b
     760:	0ff0                	addi	a2,sp,988
     762:	b7f8                	fsd	fa4,232(a5)
     764:	f800                	fsw	fs0,48(s0)
     766:	9388                	.insn	2, 0x9388
     768:	01ff 3703 03f0 1303 	.insn	10, 0x0f0f130303f0370301ff
     770:	0f0f 
     772:	f3f0b713          	sltiu	a4,ra,-193
     776:	73009383          	lh	t2,1840(ra)
     77a:	b342                	fsd	fa6,416(sp)
     77c:	5806                	lw	a6,96(sp)
     77e:	639a                	flw	ft7,132(sp)
     780:	ff00                	fsw	fs0,56(a4)
     782:	b708                	fsd	fa0,40(a4)
     784:	9388f80f          	.insn	4, 0x9388f80f
     788:	0ff0                	addi	a2,sp,988
     78a:	f30037f3          	csrrc	a5,0xf30,zero
     78e:	f0f01303          	lh	t1,-241(zero) # 0xffffff0f
     792:	030fb7f3          	csrrc	a5,0x30,t6
     796:	73009383          	lh	t2,1840(ra)
     79a:	b342                	fsd	fa6,416(sp)
     79c:	5804                	lw	s1,48(s0)
     79e:	639a                	flw	ft7,132(sp)
     7a0:	ffff                	.insn	2, 0xffff
     7a2:	b788                	fsd	fa0,40(a5)
     7a4:	0800                	addi	s0,sp,16
     7a6:	9388                	.insn	2, 0x9388
     7a8:	0000                	unimp
     7aa:	ffff1303          	lh	t1,-1(t5)
     7ae:	0300b783          	.insn	4, 0x0300b783
     7b2:	70009383          	lh	t2,1792(ra)
     7b6:	b342                	fsd	fa6,416(sp)
     7b8:	5802                	lw	a6,32(sp)
     7ba:	639c                	flw	fa5,0(a5)
     7bc:	b718000f          	.insn	4, 0xb718000f
     7c0:	08f0                	addi	a2,sp,92
     7c2:	9388                	.insn	2, 0x9388
     7c4:	370310ff 1303f3f0 	.insn	12, 0xb703ffff1303f3f0370310ff
     7cc:	b703ffff 
     7d0:	0300                	addi	s0,sp,384
     7d2:	0ff09383          	lh	t2,255(ra)
     7d6:	37fe                	fld	fa5,504(sp)
     7d8:	fe00                	fsw	fs0,56(a2)
     7da:	130e                	slli	t1,t1,0x23
     7dc:	7300                	flw	fs0,32(a4)
     7de:	b342                	fsd	fa6,416(sp)
     7e0:	c201                	beqz	a2,0x7e0
     7e2:	b3c2                	fsd	fa6,480(sp)
     7e4:	5300                	lw	s0,32(a4)
     7e6:	b3c2                	fsd	fa6,480(sp)
     7e8:	5800                	lw	s0,48(s0)
     7ea:	6394                	flw	fa3,0(a5)
     7ec:	c000                	sw	s0,0(s0)
     7ee:	6f00                	flw	fs0,24(a4)
     7f0:	9f88                	.insn	2, 0x9f88
     7f2:	eff0                	fsw	fa2,92(a5)
     7f4:	8000                	.insn	2, 0x8000
     7f6:	6f00                	flw	fs0,24(a4)
     7f8:	df82                	sw	zero,252(sp)
     7fa:	eff0                	fsw	fa2,92(a5)
     7fc:	4100                	lw	s0,0(a0)
     7fe:	8320                	.insn	2, 0x8320
     800:	0000                	unimp
     802:	6780                	flw	fs0,8(a5)
     804:	1100                	addi	s0,sp,160
     806:	2322                	fld	ft6,8(sp)
     808:	13058007          	.insn	4, 0x13058007
     80c:	1f80                	addi	s0,sp,1008
     80e:	eff0                	fsw	fa2,92(a5)
     810:	f006                	fsw	ft1,32(sp)
     812:	1305                	addi	t1,t1,-31
     814:	8fff eff0 2007 1305 	.insn	10, 0x0fff13052007eff08fff
     81c:	0fff 
     81e:	eff0                	fsw	fa2,92(a5)
     820:	9006                	c.add	zero,ra
     822:	1305                	addi	t1,t1,-31
     824:	8ffe                	mv	t6,t6
     826:	eff0                	fsw	fa2,92(a5)
     828:	e002                	fsw	ft0,0(sp)
     82a:	1305                	addi	t1,t1,-31
     82c:	0ffe                	slli	t6,t6,0x1f
     82e:	eff0                	fsw	fa2,92(a5)
     830:	e002                	fsw	ft0,0(sp)
     832:	1305                	addi	t1,t1,-31
     834:	8ffd                	and	a5,a5,a5
     836:	eff0                	fsw	fa2,92(a5)
     838:	01ff b708 08f0 9388 	.insn	10, 0xff00938808f0b70801ff
     840:	ff00 
     842:	f3003703          	.insn	4, 0xf3003703
     846:	f3f01303          	lh	t1,-193(zero) # 0xffffff3f
     84a:	9342                	add	t1,t1,a6
     84c:	5806                	lw	a6,96(sp)
     84e:	6398                	flw	fa4,0(a5)
     850:	ff00                	fsw	fs0,56(a4)
     852:	b708                	fsd	fa0,40(a4)
     854:	087f 9388 ff00 3703 	.insn	10, 0xf30f3703ff009388087f
     85c:	f30f 
     85e:	f3701303          	lh	t1,-201(zero) # 0xffffff37
     862:	9342                	add	t1,t1,a6
     864:	5804                	lw	s1,48(s0)
     866:	639c                	flw	fa5,0(a5)
     868:	0ff0                	addi	a2,sp,988
     86a:	b7f8                	fsd	fa4,232(a5)
     86c:	9388f80f          	.insn	4, 0x9388f80f
     870:	0ff0                	addi	a2,sp,988
     872:	f30037f3          	csrrc	a5,0xf30,zero
     876:	030f1303          	lh	t1,48(t5)
     87a:	9342                	add	t1,t1,a6
     87c:	5804                	lw	s1,48(s0)
     87e:	6390                	flw	fa2,0(a5)
     880:	01ff b708 08ff 9388 	.insn	10, 0x01ff938808ffb70801ff
     888:	01ff 
     88a:	03f03703          	.insn	4, 0x03f03703
     88e:	03001303          	lh	t1,48(zero) # 0x30
     892:	9302                	jalr	t1
     894:	93c2020f          	.insn	4, 0x93c2020f
     898:	5802                	lw	a6,32(sp)
     89a:	6392                	flw	ft7,4(sp)
     89c:	b718f00f          	.insn	4, 0xb718f00f
     8a0:	f880                	fsw	fs0,48(s1)
     8a2:	9388                	.insn	2, 0x9388
     8a4:	0ff0                	addi	a2,sp,988
     8a6:	f30037f3          	csrrc	a5,0xf30,zero
     8aa:	f3701303          	lh	t1,-201(zero) # 0xffffff37
     8ae:	9342                	add	t1,t1,a6
     8b0:	f2f0                	fsw	fa2,100(a3)
     8b2:	93c2                	add	t2,t2,a6
     8b4:	5800                	lw	s0,48(s0)
     8b6:	6394                	flw	fa3,0(a5)
     8b8:	c000                	sw	s0,0(s0)
     8ba:	6f00                	flw	fs0,24(a4)
     8bc:	eff0cffb          	.insn	4, 0xeff0cffb
     8c0:	8000                	.insn	2, 0x8000
     8c2:	6f00                	flw	fs0,24(a4)
     8c4:	0ff6                	slli	t6,t6,0x1d
     8c6:	eff0                	fsw	fa2,92(a5)
     8c8:	4100                	lw	s0,0(a0)
     8ca:	8320                	.insn	2, 0x8320
     8cc:	0000                	unimp
     8ce:	6780                	flw	fs0,8(a5)
     8d0:	1100                	addi	s0,sp,160
     8d2:	2322                	fld	ft6,8(sp)
     8d4:	13053007          	fld	ft0,304(a0)
     8d8:	eff04ff3          	.insn	4, 0xeff04ff3
     8dc:	c006                	sw	ra,0(sp)
     8de:	1305                	addi	t1,t1,-31
     8e0:	cff2                	sw	t3,220(sp)
     8e2:	eff0                	fsw	fa2,92(a5)
     8e4:	13054007          	.insn	4, 0x13054007
     8e8:	4ff2                	lw	t6,28(sp)
     8ea:	eff0                	fsw	fa2,92(a5)
     8ec:	e002                	fsw	ft0,0(sp)
     8ee:	1305                	addi	t1,t1,-31
     8f0:	cff1                	beqz	a5,0x9cc
     8f2:	eff0                	fsw	fa2,92(a5)
     8f4:	e002                	fsw	ft0,0(sp)
     8f6:	1305                	addi	t1,t1,-31
     8f8:	4ff1                	li	t6,28
     8fa:	eff0                	fsw	fa2,92(a5)
     8fc:	e002                	fsw	ft0,0(sp)
     8fe:	1305                	addi	t1,t1,-31
     900:	cff0                	sw	a2,92(a5)
     902:	eff0                	fsw	fa2,92(a5)
     904:	0000                	unimp
     906:	9308                	.insn	2, 0x9308
     908:	0000                	unimp
     90a:	00001303          	lh	t1,0(zero) # 0x0
     90e:	73009303          	lh	t1,1840(ra)
     912:	b322                	fsd	fs0,416(sp)
     914:	580c                	lw	a1,48(s0)
     916:	6396                	flw	ft7,68(sp)
     918:	1000                	addi	s0,sp,32
     91a:	9308                	.insn	2, 0x9308
     91c:	3000                	fld	fs0,32(s0)
     91e:	70001303          	lh	t1,1792(zero) # 0x700
     922:	73009303          	lh	t1,1840(ra)
     926:	b322                	fsd	fs0,416(sp)
     928:	580a                	lw	a6,160(sp)
     92a:	639c                	flw	fa5,0(a5)
     92c:	0000                	unimp
     92e:	9308                	.insn	2, 0x9308
     930:	7000                	flw	fs0,32(s0)
     932:	30001303          	lh	t1,768(zero) # 0x300
     936:	73009303          	lh	t1,1840(ra)
     93a:	b322                	fsd	fs0,416(sp)
     93c:	580a                	lw	a6,160(sp)
     93e:	6392                	flw	ft7,4(sp)
     940:	1000                	addi	s0,sp,32
     942:	9308                	.insn	2, 0x9308
     944:	0080                	addi	s0,sp,64
     946:	03003703          	.insn	4, 0x03003703
     94a:	80001303          	lh	t1,-2048(zero) # 0xfffff800
     94e:	73009303          	lh	t1,1840(ra)
     952:	b322                	fsd	fs0,416(sp)
     954:	5808                	lw	a0,48(s0)
     956:	6396                	flw	ft7,68(sp)
     958:	0000                	unimp
     95a:	9308                	.insn	2, 0x9308
     95c:	8000                	.insn	2, 0x8000
     95e:	00801303          	lh	t1,8(zero) # 0x8
     962:	0300b703          	.insn	4, 0x0300b703
     966:	73009383          	lh	t2,1840(ra)
     96a:	b322                	fsd	fs0,416(sp)
     96c:	5806                	lw	a6,96(sp)
     96e:	639a                	flw	ft7,132(sp)
     970:	1000                	addi	s0,sp,32
     972:	9308                	.insn	2, 0x9308
     974:	0080                	addi	s0,sp,64
     976:	03003703          	.insn	4, 0x03003703
     97a:	f0ff1303          	lh	t1,-241(t5)
     97e:	73009303          	lh	t1,1840(ra)
     982:	b322                	fsd	fs0,416(sp)
     984:	5804                	lw	s1,48(s0)
     986:	639e                	flw	ft7,196(sp)
     988:	0000                	unimp
     98a:	9308                	.insn	2, 0x9308
     98c:	f0ff                	.insn	2, 0xf0ff
     98e:	00801303          	lh	t1,8(zero) # 0x8
     992:	0300b703          	.insn	4, 0x0300b703
     996:	73009383          	lh	t2,1840(ra)
     99a:	b322                	fsd	fs0,416(sp)
     99c:	5804                	lw	s1,48(s0)
     99e:	6392                	flw	ft7,4(sp)
     9a0:	0000                	unimp
     9a2:	9308                	.insn	2, 0x9308
     9a4:	8000                	.insn	2, 0x8000
     9a6:	63001303          	lh	t1,1584(zero) # 0x630
     9aa:	b322                	fsd	fs0,416(sp)
     9ac:	5802                	lw	a6,32(sp)
     9ae:	639a                	flw	ft7,132(sp)
     9b0:	0000                	unimp
     9b2:	9308                	.insn	2, 0x9308
     9b4:	8000                	.insn	2, 0x8000
     9b6:	00001303          	lh	t1,0(zero) # 0x0
     9ba:	9302                	jalr	t1
     9bc:	5300                	lw	s0,32(a4)
     9be:	b322                	fsd	fs0,416(sp)
     9c0:	5802                	lw	a6,32(sp)
     9c2:	6390                	flw	fa2,0(a5)
     9c4:	1000                	addi	s0,sp,32
     9c6:	9308                	.insn	2, 0x9308
     9c8:	0080                	addi	s0,sp,64
     9ca:	03003703          	.insn	4, 0x03003703
     9ce:	00001303          	lh	t1,0(zero) # 0x0
     9d2:	9302                	jalr	t1
     9d4:	5300                	lw	s0,32(a4)
     9d6:	b322                	fsd	fs0,416(sp)
     9d8:	5800                	lw	s0,48(s0)
     9da:	6394                	flw	fa3,0(a5)
     9dc:	c000                	sw	s0,0(s0)
     9de:	6f00                	flw	fs0,24(a4)
     9e0:	8fe9                	and	a5,a5,a0
     9e2:	eff0                	fsw	fa2,92(a5)
     9e4:	8000                	.insn	2, 0x8000
     9e6:	6f00                	flw	fs0,24(a4)
     9e8:	eff0cfe3          	blt	ra,t6,0x8e6
     9ec:	4100                	lw	s0,0(a0)
     9ee:	8320                	.insn	2, 0x8320
     9f0:	0000                	unimp
     9f2:	6780                	flw	fs0,8(a5)
     9f4:	1100                	addi	s0,sp,160
     9f6:	2322                	fld	ft6,8(sp)
     9f8:	13053007          	fld	ft0,304(a0)
     9fc:	0fe1                	addi	t6,t6,24
     9fe:	eff0                	fsw	fa2,92(a5)
     a00:	c006                	sw	ra,0(sp)
     a02:	1305                	addi	t1,t1,-31
     a04:	8fe0                	.insn	2, 0x8fe0
     a06:	eff0                	fsw	fa2,92(a5)
     a08:	13054007          	.insn	4, 0x13054007
     a0c:	0fe0                	addi	s0,sp,988
     a0e:	eff0                	fsw	fa2,92(a5)
     a10:	13055007          	.insn	4, 0x13055007
     a14:	8fdf eff0 e002      	.insn	6, 0xe002eff08fdf
     a1a:	1305                	addi	t1,t1,-31
     a1c:	0fdf eff0 e002      	.insn	6, 0xe002eff00fdf
     a22:	1305                	addi	t1,t1,-31
     a24:	8fde                	mv	t6,s7
     a26:	eff0                	fsw	fa2,92(a5)
     a28:	0000                	unimp
     a2a:	9308                	.insn	2, 0x9308
     a2c:	0000                	unimp
     a2e:	00001303          	lh	t1,0(zero) # 0x0
     a32:	73009303          	lh	t1,1840(ra)
     a36:	b332                	fsd	fa2,416(sp)
     a38:	580c                	lw	a1,48(s0)
     a3a:	6396                	flw	ft7,68(sp)
     a3c:	1000                	addi	s0,sp,32
     a3e:	9308                	.insn	2, 0x9308
     a40:	3000                	fld	fs0,32(s0)
     a42:	70001303          	lh	t1,1792(zero) # 0x700
     a46:	73009303          	lh	t1,1840(ra)
     a4a:	b332                	fsd	fa2,416(sp)
     a4c:	580a                	lw	a6,160(sp)
     a4e:	639c                	flw	fa5,0(a5)
     a50:	0000                	unimp
     a52:	9308                	.insn	2, 0x9308
     a54:	7000                	flw	fs0,32(s0)
     a56:	30001303          	lh	t1,768(zero) # 0x300
     a5a:	73009303          	lh	t1,1840(ra)
     a5e:	b332                	fsd	fa2,416(sp)
     a60:	580a                	lw	a6,160(sp)
     a62:	6392                	flw	ft7,4(sp)
     a64:	0000                	unimp
     a66:	9308                	.insn	2, 0x9308
     a68:	0080                	addi	s0,sp,64
     a6a:	03003703          	.insn	4, 0x03003703
     a6e:	80001303          	lh	t1,-2048(zero) # 0xfffff800
     a72:	73009303          	lh	t1,1840(ra)
     a76:	b332                	fsd	fa2,416(sp)
     a78:	5808                	lw	a0,48(s0)
     a7a:	6396                	flw	ft7,68(sp)
     a7c:	1000                	addi	s0,sp,32
     a7e:	9308                	.insn	2, 0x9308
     a80:	8000                	.insn	2, 0x8000
     a82:	00801303          	lh	t1,8(zero) # 0x8
     a86:	0300b703          	.insn	4, 0x0300b703
     a8a:	73009383          	lh	t2,1840(ra)
     a8e:	b332                	fsd	fa2,416(sp)
     a90:	5806                	lw	a6,96(sp)
     a92:	639a                	flw	ft7,132(sp)
     a94:	1000                	addi	s0,sp,32
     a96:	9308                	.insn	2, 0x9308
     a98:	0080                	addi	s0,sp,64
     a9a:	03003703          	.insn	4, 0x03003703
     a9e:	f0ff1303          	lh	t1,-241(t5)
     aa2:	73009303          	lh	t1,1840(ra)
     aa6:	b332                	fsd	fa2,416(sp)
     aa8:	5804                	lw	s1,48(s0)
     aaa:	639e                	flw	ft7,196(sp)
     aac:	0000                	unimp
     aae:	9308                	.insn	2, 0x9308
     ab0:	f0ff                	.insn	2, 0xf0ff
     ab2:	00801303          	lh	t1,8(zero) # 0x8
     ab6:	0300b703          	.insn	4, 0x0300b703
     aba:	73009383          	lh	t2,1840(ra)
     abe:	b332                	fsd	fa2,416(sp)
     ac0:	5804                	lw	s1,48(s0)
     ac2:	6392                	flw	ft7,4(sp)
     ac4:	0000                	unimp
     ac6:	9308                	.insn	2, 0x9308
     ac8:	8000                	.insn	2, 0x8000
     aca:	63001303          	lh	t1,1584(zero) # 0x630
     ace:	b332                	fsd	fa2,416(sp)
     ad0:	5802                	lw	a6,32(sp)
     ad2:	639a                	flw	ft7,132(sp)
     ad4:	0000                	unimp
     ad6:	9308                	.insn	2, 0x9308
     ad8:	8000                	.insn	2, 0x8000
     ada:	00001303          	lh	t1,0(zero) # 0x0
     ade:	9302                	jalr	t1
     ae0:	5300                	lw	s0,32(a4)
     ae2:	b332                	fsd	fa2,416(sp)
     ae4:	5802                	lw	a6,32(sp)
     ae6:	6390                	flw	fa2,0(a5)
     ae8:	0000                	unimp
     aea:	9308                	.insn	2, 0x9308
     aec:	0080                	addi	s0,sp,64
     aee:	03003703          	.insn	4, 0x03003703
     af2:	00001303          	lh	t1,0(zero) # 0x0
     af6:	9302                	jalr	t1
     af8:	5300                	lw	s0,32(a4)
     afa:	b332                	fsd	fa2,416(sp)
     afc:	5800                	lw	s0,48(s0)
     afe:	6394                	flw	fa3,0(a5)
     b00:	c000                	sw	s0,0(s0)
     b02:	6f00                	flw	fs0,24(a4)
     b04:	eff04fd7          	.insn	4, 0xeff04fd7
     b08:	8000                	.insn	2, 0x8000
     b0a:	6f00                	flw	fs0,24(a4)
     b0c:	8fd1                	or	a5,a5,a2
     b0e:	eff0                	fsw	fa2,92(a5)
     b10:	4100                	lw	s0,0(a0)
     b12:	8320                	.insn	2, 0x8320
     b14:	0000                	unimp
     b16:	6780                	flw	fs0,8(a5)
     b18:	1100                	addi	s0,sp,160
     b1a:	2322                	fld	ft6,8(sp)
     b1c:	13053007          	fld	ft0,304(a0)
     b20:	cfce                	sw	s3,220(sp)
     b22:	eff0                	fsw	fa2,92(a5)
     b24:	c006                	sw	ra,0(sp)
     b26:	1305                	addi	t1,t1,-31
     b28:	4fce                	lw	t6,208(sp)
     b2a:	eff0                	fsw	fa2,92(a5)
     b2c:	13054007          	.insn	4, 0x13054007
     b30:	cfcd                	beqz	a5,0xbea
     b32:	eff0                	fsw	fa2,92(a5)
     b34:	9006                	c.add	zero,ra
     b36:	1305                	addi	t1,t1,-31
     b38:	4fcd                	li	t6,19
     b3a:	eff0                	fsw	fa2,92(a5)
     b3c:	e002                	fsw	ft0,0(sp)
     b3e:	1305                	addi	t1,t1,-31
     b40:	cfcc                	sw	a1,28(a5)
     b42:	eff0                	fsw	fa2,92(a5)
     b44:	e002                	fsw	ft0,0(sp)
     b46:	1305                	addi	t1,t1,-31
     b48:	4fcc                	lw	a1,28(a5)
     b4a:	eff0                	fsw	fa2,92(a5)
     b4c:	0000                	unimp
     b4e:	9308                	.insn	2, 0x9308
     b50:	0000                	unimp
     b52:	03001303          	lh	t1,48(zero) # 0x30
     b56:	9322                	add	t1,t1,s0
     b58:	5806                	lw	a6,96(sp)
     b5a:	6396                	flw	ft7,68(sp)
     b5c:	1000                	addi	s0,sp,32
     b5e:	9308                	.insn	2, 0x9308
     b60:	3000                	fld	fs0,32(s0)
     b62:	73001303          	lh	t1,1840(zero) # 0x730
     b66:	9322                	add	t1,t1,s0
     b68:	5804                	lw	s1,48(s0)
     b6a:	639e                	flw	ft7,196(sp)
     b6c:	0000                	unimp
     b6e:	9308                	.insn	2, 0x9308
     b70:	7000                	flw	fs0,32(s0)
     b72:	33001303          	lh	t1,816(zero) # 0x330
     b76:	9322                	add	t1,t1,s0
     b78:	5804                	lw	s1,48(s0)
     b7a:	6396                	flw	ft7,68(sp)
     b7c:	1000                	addi	s0,sp,32
     b7e:	9308                	.insn	2, 0x9308
     b80:	0080                	addi	s0,sp,64
     b82:	03003703          	.insn	4, 0x03003703
     b86:	23001303          	lh	t1,560(zero) # 0x230
     b8a:	9322                	add	t1,t1,s0
     b8c:	5802                	lw	a6,32(sp)
     b8e:	639c                	flw	fa5,0(a5)
     b90:	0000                	unimp
     b92:	9308                	.insn	2, 0x9308
     b94:	8000                	.insn	2, 0x8000
     b96:	f3ff1303          	lh	t1,-193(t5)
     b9a:	9322                	add	t1,t1,s0
     b9c:	5802                	lw	a6,32(sp)
     b9e:	6394                	flw	fa3,0(a5)
     ba0:	1000                	addi	s0,sp,32
     ba2:	9308                	.insn	2, 0x9308
     ba4:	0000                	unimp
     ba6:	9302                	jalr	t1
     ba8:	8200                	.insn	2, 0x8200
     baa:	93a2                	add	t2,t2,s0
     bac:	5800                	lw	s0,48(s0)
     bae:	639c                	flw	fa5,0(a5)
     bb0:	0000                	unimp
     bb2:	9308                	.insn	2, 0x9308
     bb4:	0000                	unimp
     bb6:	9302                	jalr	t1
     bb8:	f2ff                	.insn	2, 0xf2ff
     bba:	93a2                	add	t2,t2,s0
     bbc:	5800                	lw	s0,48(s0)
     bbe:	6394                	flw	fa3,0(a5)
     bc0:	c000                	sw	s0,0(s0)
     bc2:	6f00                	flw	fs0,24(a4)
     bc4:	eff04fcb          	.insn	4, 0xeff04fcb
     bc8:	8000                	.insn	2, 0x8000
     bca:	6f00                	flw	fs0,24(a4)
     bcc:	8fc5                	or	a5,a5,s1
     bce:	eff0                	fsw	fa2,92(a5)
     bd0:	4100                	lw	s0,0(a0)
     bd2:	8320                	.insn	2, 0x8320
     bd4:	0000                	unimp
     bd6:	6780                	flw	fs0,8(a5)
     bd8:	1100                	addi	s0,sp,160
     bda:	2322                	fld	ft6,8(sp)
     bdc:	13053007          	fld	ft0,304(a0)
     be0:	cfc2                	sw	a6,220(sp)
     be2:	eff0                	fsw	fa2,92(a5)
     be4:	c006                	sw	ra,0(sp)
     be6:	1305                	addi	t1,t1,-31
     be8:	4fc2                	lw	t6,16(sp)
     bea:	eff0                	fsw	fa2,92(a5)
     bec:	13054007          	.insn	4, 0x13054007
     bf0:	cfc1                	beqz	a5,0xc88
     bf2:	eff0                	fsw	fa2,92(a5)
     bf4:	9006                	c.add	zero,ra
     bf6:	1305                	addi	t1,t1,-31
     bf8:	4fc1                	li	t6,16
     bfa:	eff0                	fsw	fa2,92(a5)
     bfc:	13055007          	.insn	4, 0x13055007
     c00:	cfc0                	sw	s0,28(a5)
     c02:	eff0                	fsw	fa2,92(a5)
     c04:	e002                	fsw	ft0,0(sp)
     c06:	1305                	addi	t1,t1,-31
     c08:	4fc0                	lw	s0,28(a5)
     c0a:	eff0                	fsw	fa2,92(a5)
     c0c:	0000                	unimp
     c0e:	9308                	.insn	2, 0x9308
     c10:	0000                	unimp
     c12:	03001303          	lh	t1,48(zero) # 0x30
     c16:	9332                	add	t1,t1,a2
     c18:	5806                	lw	a6,96(sp)
     c1a:	6396                	flw	ft7,68(sp)
     c1c:	1000                	addi	s0,sp,32
     c1e:	9308                	.insn	2, 0x9308
     c20:	3000                	fld	fs0,32(s0)
     c22:	73001303          	lh	t1,1840(zero) # 0x730
     c26:	9332                	add	t1,t1,a2
     c28:	5804                	lw	s1,48(s0)
     c2a:	639e                	flw	ft7,196(sp)
     c2c:	0000                	unimp
     c2e:	9308                	.insn	2, 0x9308
     c30:	7000                	flw	fs0,32(s0)
     c32:	33001303          	lh	t1,816(zero) # 0x330
     c36:	9332                	add	t1,t1,a2
     c38:	5804                	lw	s1,48(s0)
     c3a:	6396                	flw	ft7,68(sp)
     c3c:	0000                	unimp
     c3e:	9308                	.insn	2, 0x9308
     c40:	0080                	addi	s0,sp,64
     c42:	03003703          	.insn	4, 0x03003703
     c46:	23001303          	lh	t1,560(zero) # 0x230
     c4a:	9332                	add	t1,t1,a2
     c4c:	5802                	lw	a6,32(sp)
     c4e:	639c                	flw	fa5,0(a5)
     c50:	1000                	addi	s0,sp,32
     c52:	9308                	.insn	2, 0x9308
     c54:	8000                	.insn	2, 0x8000
     c56:	f3ff1303          	lh	t1,-193(t5)
     c5a:	9332                	add	t1,t1,a2
     c5c:	5802                	lw	a6,32(sp)
     c5e:	6394                	flw	fa3,0(a5)
     c60:	1000                	addi	s0,sp,32
     c62:	9308                	.insn	2, 0x9308
     c64:	0000                	unimp
     c66:	9302                	jalr	t1
     c68:	8200                	.insn	2, 0x8200
     c6a:	93b2                	add	t2,t2,a2
     c6c:	5800                	lw	s0,48(s0)
     c6e:	639c                	flw	fa5,0(a5)
     c70:	1000                	addi	s0,sp,32
     c72:	9308                	.insn	2, 0x9308
     c74:	0000                	unimp
     c76:	9302                	jalr	t1
     c78:	f2ff                	.insn	2, 0xf2ff
     c7a:	93b2                	add	t2,t2,a2
     c7c:	5800                	lw	s0,48(s0)
     c7e:	6394                	flw	fa3,0(a5)
     c80:	c000                	sw	s0,0(s0)
     c82:	6f00                	flw	fs0,24(a4)
     c84:	eff04fbf 6f008000 	.insn	8, 0x6f008000eff04fbf
     c8c:	8fb9                	xor	a5,a5,a4
     c8e:	eff0                	fsw	fa2,92(a5)
     c90:	4100                	lw	s0,0(a0)
     c92:	8320                	.insn	2, 0x8320
     c94:	0000                	unimp
     c96:	6780                	flw	fs0,8(a5)
     c98:	1100                	addi	s0,sp,160
     c9a:	2322                	fld	ft6,8(sp)
     c9c:	13053007          	fld	ft0,304(a0)
     ca0:	cfb6                	sw	a3,220(sp)
     ca2:	eff0                	fsw	fa2,92(a5)
     ca4:	c006                	sw	ra,0(sp)
     ca6:	1305                	addi	t1,t1,-31
     ca8:	4fb6                	lw	t6,76(sp)
     caa:	eff0                	fsw	fa2,92(a5)
     cac:	c006                	sw	ra,0(sp)
     cae:	1305                	addi	t1,t1,-31
     cb0:	cfb5                	beqz	a5,0xd2c
     cb2:	eff0                	fsw	fa2,92(a5)
     cb4:	e002                	fsw	ft0,0(sp)
     cb6:	1305                	addi	t1,t1,-31
     cb8:	4fb5                	li	t6,13
     cba:	eff0                	fsw	fa2,92(a5)
     cbc:	e002                	fsw	ft0,0(sp)
     cbe:	1305                	addi	t1,t1,-31
     cc0:	cfb4                	sw	a3,88(a5)
     cc2:	eff0                	fsw	fa2,92(a5)
     cc4:	e002                	fsw	ft0,0(sp)
     cc6:	1305                	addi	t1,t1,-31
     cc8:	4fb4                	lw	a3,88(a5)
     cca:	eff0                	fsw	fa2,92(a5)
     ccc:	0000                	unimp
     cce:	b748                	fsd	fa0,168(a4)
     cd0:	0800                	addi	s0,sp,16
     cd2:	9388                	.insn	2, 0x9388
     cd4:	1000                	addi	s0,sp,32
     cd6:	e0001303          	lh	t1,-512(zero) # 0xfffffe00
     cda:	73009303          	lh	t1,1840(ra)
     cde:	b312                	fsd	ft4,416(sp)
     ce0:	5804                	lw	s1,48(s0)
     ce2:	639a                	flw	ft7,132(sp)
     ce4:	00f8                	addi	a4,sp,76
     ce6:	9308                	.insn	2, 0x9308
     ce8:	f0ff                	.insn	2, 0xf0ff
     cea:	70001303          	lh	t1,1792(zero) # 0x700
     cee:	73009303          	lh	t1,1840(ra)
     cf2:	b312                	fsd	ft4,416(sp)
     cf4:	5804                	lw	s1,48(s0)
     cf6:	6390                	flw	fa2,0(a5)
     cf8:	4848                	lw	a0,20(s0)
     cfa:	b748                	fsd	fa0,168(a4)
     cfc:	0800                	addi	s0,sp,16
     cfe:	9388                	.insn	2, 0x9388
     d00:	2121                	jal	0x1108
     d02:	13123723          	.insn	4, 0x13123723
     d06:	e0001303          	lh	t1,-512(zero) # 0xfffffe00
     d0a:	73009303          	lh	t1,1840(ra)
     d0e:	b312                	fsd	ft4,416(sp)
     d10:	5802                	lw	a6,32(sp)
     d12:	6392                	flw	ft7,4(sp)
     d14:	4848                	lw	a0,20(s0)
     d16:	b748                	fsd	fa0,168(a4)
     d18:	0800                	addi	s0,sp,16
     d1a:	9388                	.insn	2, 0x9388
     d1c:	2121                	jal	0x1124
     d1e:	13123723          	.insn	4, 0x13123723
     d22:	e0fe1303          	lh	t1,-497(t3)
     d26:	73009303          	lh	t1,1840(ra)
     d2a:	b312                	fsd	ft4,416(sp)
     d2c:	5800                	lw	s0,48(s0)
     d2e:	6394                	flw	fa3,0(a5)
     d30:	c000                	sw	s0,0(s0)
     d32:	6f00                	flw	fs0,24(a4)
     d34:	4fb4                	lw	a3,88(a5)
     d36:	eff0                	fsw	fa2,92(a5)
     d38:	8000                	.insn	2, 0x8000
     d3a:	6f00                	flw	fs0,24(a4)
     d3c:	8fae                	mv	t6,a1
     d3e:	eff0                	fsw	fa2,92(a5)
     d40:	4100                	lw	s0,0(a0)
     d42:	8320                	.insn	2, 0x8320
     d44:	0000                	unimp
     d46:	6780                	flw	fs0,8(a5)
     d48:	1100                	addi	s0,sp,160
     d4a:	2322                	fld	ft6,8(sp)
     d4c:	13053007          	fld	ft0,304(a0)
     d50:	eff0cfab          	.insn	4, 0xeff0cfab
     d54:	c006                	sw	ra,0(sp)
     d56:	1305                	addi	t1,t1,-31
     d58:	eff04fab          	.insn	4, 0xeff04fab
     d5c:	c006                	sw	ra,0(sp)
     d5e:	1305                	addi	t1,t1,-31
     d60:	cfaa                	sw	a0,220(sp)
     d62:	eff0                	fsw	fa2,92(a5)
     d64:	9006                	c.add	zero,ra
     d66:	1305                	addi	t1,t1,-31
     d68:	4faa                	lw	t6,136(sp)
     d6a:	eff0                	fsw	fa2,92(a5)
     d6c:	e002                	fsw	ft0,0(sp)
     d6e:	1305                	addi	t1,t1,-31
     d70:	cfa9                	beqz	a5,0xdca
     d72:	eff0                	fsw	fa2,92(a5)
     d74:	e002                	fsw	ft0,0(sp)
     d76:	1305                	addi	t1,t1,-31
     d78:	4fa9                	li	t6,10
     d7a:	eff0                	fsw	fa2,92(a5)
     d7c:	0000                	unimp
     d7e:	b748                	fsd	fa0,168(a4)
     d80:	0800                	addi	s0,sp,16
     d82:	9388                	.insn	2, 0x9388
     d84:	1000                	addi	s0,sp,32
     d86:	e3001303          	lh	t1,-464(zero) # 0xfffffe30
     d8a:	9312                	add	t1,t1,tp
     d8c:	5802                	lw	a6,32(sp)
     d8e:	639a                	flw	ft7,132(sp)
     d90:	00f8                	addi	a4,sp,76
     d92:	9308                	.insn	2, 0x9308
     d94:	f0ff                	.insn	2, 0xf0ff
     d96:	73001303          	lh	t1,1840(zero) # 0x730
     d9a:	9312                	add	t1,t1,tp
     d9c:	5802                	lw	a6,32(sp)
     d9e:	6392                	flw	ft7,4(sp)
     da0:	4848                	lw	a0,20(s0)
     da2:	b748                	fsd	fa0,168(a4)
     da4:	0800                	addi	s0,sp,16
     da6:	9388                	.insn	2, 0x9388
     da8:	2121                	jal	0x11b0
     daa:	13123723          	.insn	4, 0x13123723
     dae:	e0001303          	lh	t1,-512(zero) # 0xfffffe00
     db2:	e3009303          	lh	t1,-464(ra)
     db6:	9312                	add	t1,t1,tp
     db8:	5800                	lw	s0,48(s0)
     dba:	6394                	flw	fa3,0(a5)
     dbc:	c000                	sw	s0,0(s0)
     dbe:	6f00                	flw	fs0,24(a4)
     dc0:	eff08fab          	.insn	4, 0xeff08fab
     dc4:	8000                	.insn	2, 0x8000
     dc6:	6f00                	flw	fs0,24(a4)
     dc8:	cfa5                	beqz	a5,0xe40
     dca:	eff0                	fsw	fa2,92(a5)
     dcc:	4100                	lw	s0,0(a0)
     dce:	8320                	.insn	2, 0x8320
     dd0:	0000                	unimp
     dd2:	6780                	flw	fs0,8(a5)
     dd4:	1100                	addi	s0,sp,160
     dd6:	2322                	fld	ft6,8(sp)
     dd8:	13053007          	fld	ft0,304(a0)
     ddc:	eff00fa3          	sb	t6,-257(zero) # 0xfffffeff
     de0:	13052007          	flw	ft0,304(a0)
     de4:	8fa2                	mv	t6,s0
     de6:	eff0                	fsw	fa2,92(a5)
     de8:	c006                	sw	ra,0(sp)
     dea:	1305                	addi	t1,t1,-31
     dec:	0fa2                	slli	t6,t6,0x8
     dee:	eff0                	fsw	fa2,92(a5)
     df0:	e002                	fsw	ft0,0(sp)
     df2:	1305                	addi	t1,t1,-31
     df4:	8fa1                	xor	a5,a5,s0
     df6:	eff0                	fsw	fa2,92(a5)
     df8:	e002                	fsw	ft0,0(sp)
     dfa:	1305                	addi	t1,t1,-31
     dfc:	0fa1                	addi	t6,t6,8
     dfe:	eff0                	fsw	fa2,92(a5)
     e00:	e002                	fsw	ft0,0(sp)
     e02:	1305                	addi	t1,t1,-31
     e04:	8fa0                	.insn	2, 0x8fa0
     e06:	eff0                	fsw	fa2,92(a5)
     e08:	0002                	c.slli64	zero
     e0a:	b708                	fsd	fa0,40(a4)
     e0c:	08f0                	addi	a2,sp,92
     e0e:	9388                	.insn	2, 0x9388
     e10:	ffff                	.insn	2, 0xffff
     e12:	03003783          	.insn	4, 0x03003783
     e16:	70001303          	lh	t1,1792(zero) # 0x700
     e1a:	73009303          	lh	t1,1840(ra)
     e1e:	b352                	fsd	fs4,416(sp)
     e20:	5804                	lw	s1,48(s0)
     e22:	639c                	flw	fa5,0(a5)
     e24:	0400                	addi	s0,sp,512
     e26:	b708                	fsd	fa0,40(a4)
     e28:	f8ff                	.insn	2, 0xf8ff
     e2a:	9388                	.insn	2, 0x9388
     e2c:	f0ff                	.insn	2, 0xf0ff
     e2e:	e0001303          	lh	t1,-512(zero) # 0xfffffe00
     e32:	73009303          	lh	t1,1840(ra)
     e36:	b352                	fsd	fs4,416(sp)
     e38:	5804                	lw	s1,48(s0)
     e3a:	6390                	flw	fa2,0(a5)
     e3c:	4200                	lw	s0,0(a2)
     e3e:	b748                	fsd	fa0,168(a4)
     e40:	2824                	fld	fs1,80(s0)
     e42:	9388                	.insn	2, 0x9388
     e44:	2121                	jal	0x124c
     e46:	13123723          	.insn	4, 0x13123723
     e4a:	70001303          	lh	t1,1792(zero) # 0x700
     e4e:	73009303          	lh	t1,1840(ra)
     e52:	b352                	fsd	fs4,416(sp)
     e54:	5802                	lw	a6,32(sp)
     e56:	6392                	flw	ft7,4(sp)
     e58:	0000                	unimp
     e5a:	b788                	fsd	fa0,40(a5)
     e5c:	4848                	lw	a0,20(s0)
     e5e:	9388                	.insn	2, 0x9388
     e60:	2121                	jal	0x1268
     e62:	13123723          	.insn	4, 0x13123723
     e66:	e0fe1303          	lh	t1,-497(t3)
     e6a:	73009303          	lh	t1,1840(ra)
     e6e:	b352                	fsd	fs4,416(sp)
     e70:	5800                	lw	s0,48(s0)
     e72:	6394                	flw	fa3,0(a5)
     e74:	c000                	sw	s0,0(s0)
     e76:	6f00                	flw	fs0,24(a4)
     e78:	0fa0                	addi	s0,sp,984
     e7a:	eff0                	fsw	fa2,92(a5)
     e7c:	8000                	.insn	2, 0x8000
     e7e:	6f00                	flw	fs0,24(a4)
     e80:	4f9a                	lw	t6,132(sp)
     e82:	eff0                	fsw	fa2,92(a5)
     e84:	4100                	lw	s0,0(a0)
     e86:	8320                	.insn	2, 0x8320
     e88:	0000                	unimp
     e8a:	6780                	flw	fs0,8(a5)
     e8c:	1100                	addi	s0,sp,160
     e8e:	2322                	fld	ft6,8(sp)
     e90:	13053007          	fld	ft0,304(a0)
     e94:	eff08f97          	auipc	t6,0xeff08
     e98:	13052007          	flw	ft0,304(a0)
     e9c:	eff00f97          	auipc	t6,0xeff00
     ea0:	c006                	sw	ra,0(sp)
     ea2:	1305                	addi	t1,t1,-31
     ea4:	8f96                	mv	t6,t0
     ea6:	eff0                	fsw	fa2,92(a5)
     ea8:	9006                	c.add	zero,ra
     eaa:	1305                	addi	t1,t1,-31
     eac:	0f96                	slli	t6,t6,0x5
     eae:	eff0                	fsw	fa2,92(a5)
     eb0:	e002                	fsw	ft0,0(sp)
     eb2:	1305                	addi	t1,t1,-31
     eb4:	8f95                	sub	a5,a5,a3
     eb6:	eff0                	fsw	fa2,92(a5)
     eb8:	e002                	fsw	ft0,0(sp)
     eba:	1305                	addi	t1,t1,-31
     ebc:	0f95                	addi	t6,t6,5 # 0xeff00ea1
     ebe:	eff0                	fsw	fa2,92(a5)
     ec0:	0400                	addi	s0,sp,512
     ec2:	b708                	fsd	fa0,40(a4)
     ec4:	e8ff 9388 ffff 3783 	.insn	22, 0x0001639c58029352e300130303003783ffff9388e8ff
     ecc:	0300 1303 e300 9352 
     ed4:	5802 639c 0001 
     eda:	b708                	fsd	fa0,40(a4)
     edc:	f8ff                	.insn	2, 0xf8ff
     ede:	9388                	.insn	2, 0x9388
     ee0:	0080                	addi	s0,sp,64
     ee2:	f3ff3703          	.insn	4, 0xf3ff3703
     ee6:	73001303          	lh	t1,1840(zero) # 0x730
     eea:	9352                	add	t1,t1,s4
     eec:	5802                	lw	a6,32(sp)
     eee:	6390                	flw	fa2,0(a5)
     ef0:	0000                	unimp
     ef2:	b788                	fsd	fa0,40(a5)
     ef4:	4848                	lw	a0,20(s0)
     ef6:	9388                	.insn	2, 0x9388
     ef8:	2121                	jal	0x1300
     efa:	13123723          	.insn	4, 0x13123723
     efe:	e3001303          	lh	t1,-464(zero) # 0xfffffe30
     f02:	9352                	add	t1,t1,s4
     f04:	5800                	lw	s0,48(s0)
     f06:	6394                	flw	fa3,0(a5)
     f08:	c000                	sw	s0,0(s0)
     f0a:	6f00                	flw	fs0,24(a4)
     f0c:	cf96                	sw	t0,220(sp)
     f0e:	eff0                	fsw	fa2,92(a5)
     f10:	8000                	.insn	2, 0x8000
     f12:	6f00                	flw	fs0,24(a4)
     f14:	0f91                	addi	t6,t6,4
     f16:	eff0                	fsw	fa2,92(a5)
     f18:	4100                	lw	s0,0(a0)
     f1a:	8320                	.insn	2, 0x8320
     f1c:	0000                	unimp
     f1e:	6780                	flw	fs0,8(a5)
     f20:	1100                	addi	s0,sp,160
     f22:	2322                	fld	ft6,8(sp)
     f24:	13053007          	fld	ft0,304(a0)
     f28:	4f8e                	lw	t6,192(sp)
     f2a:	eff0                	fsw	fa2,92(a5)
     f2c:	13052007          	flw	ft0,304(a0)
     f30:	cf8d                	beqz	a5,0xf6a
     f32:	eff0                	fsw	fa2,92(a5)
     f34:	1006                	c.slli	zero,0x21
     f36:	1305                	addi	t1,t1,-31
     f38:	4f8d                	li	t6,3
     f3a:	eff0                	fsw	fa2,92(a5)
     f3c:	e002                	fsw	ft0,0(sp)
     f3e:	1305                	addi	t1,t1,-31
     f40:	cf8c                	sw	a1,24(a5)
     f42:	eff0                	fsw	fa2,92(a5)
     f44:	e002                	fsw	ft0,0(sp)
     f46:	1305                	addi	t1,t1,-31
     f48:	4f8c                	lw	a1,24(a5)
     f4a:	eff0                	fsw	fa2,92(a5)
     f4c:	e002                	fsw	ft0,0(sp)
     f4e:	1305                	addi	t1,t1,-31
     f50:	eff0cf8b          	.insn	4, 0xeff0cf8b
     f54:	00f0                	addi	a2,sp,76
     f56:	9308                	.insn	2, 0x9308
     f58:	ffff                	.insn	2, 0xffff
     f5a:	03003783          	.insn	4, 0x03003783
     f5e:	70001303          	lh	t1,1792(zero) # 0x700
     f62:	73409303          	lh	t1,1844(ra)
     f66:	b352                	fsd	fs4,416(sp)
     f68:	5804                	lw	s1,48(s0)
     f6a:	639a                	flw	ft7,132(sp)
     f6c:	f0ff                	.insn	2, 0xf0ff
     f6e:	9308                	.insn	2, 0x9308
     f70:	f0ff                	.insn	2, 0xf0ff
     f72:	e0001303          	lh	t1,-512(zero) # 0xfffffe00
     f76:	73409303          	lh	t1,1844(ra)
     f7a:	b352                	fsd	fs4,416(sp)
     f7c:	5804                	lw	s1,48(s0)
     f7e:	6390                	flw	fa2,0(a5)
     f80:	4200                	lw	s0,0(a2)
     f82:	b748                	fsd	fa0,168(a4)
     f84:	2824                	fld	fs1,80(s0)
     f86:	9388                	.insn	2, 0x9388
     f88:	2121                	jal	0x1390
     f8a:	13123723          	.insn	4, 0x13123723
     f8e:	70001303          	lh	t1,1792(zero) # 0x700
     f92:	73409303          	lh	t1,1844(ra)
     f96:	b352                	fsd	fs4,416(sp)
     f98:	5802                	lw	a6,32(sp)
     f9a:	6392                	flw	ft7,4(sp)
     f9c:	0000                	unimp
     f9e:	b788                	fsd	fa0,40(a5)
     fa0:	4848                	lw	a0,20(s0)
     fa2:	9388                	.insn	2, 0x9388
     fa4:	2121                	jal	0x13ac
     fa6:	13123723          	.insn	4, 0x13123723
     faa:	e0fe1303          	lh	t1,-497(t3)
     fae:	73409303          	lh	t1,1844(ra)
     fb2:	b352                	fsd	fs4,416(sp)
     fb4:	5800                	lw	s0,48(s0)
     fb6:	6394                	flw	fa3,0(a5)
     fb8:	c000                	sw	s0,0(s0)
     fba:	6f00                	flw	fs0,24(a4)
     fbc:	eff0cf8b          	.insn	4, 0xeff0cf8b
     fc0:	8000                	.insn	2, 0x8000
     fc2:	6f00                	flw	fs0,24(a4)
     fc4:	0f86                	slli	t6,t6,0x1
     fc6:	eff0                	fsw	fa2,92(a5)
     fc8:	4100                	lw	s0,0(a0)
     fca:	8320                	.insn	2, 0x8320
     fcc:	0000                	unimp
     fce:	6780                	flw	fs0,8(a5)
     fd0:	1100                	addi	s0,sp,160
     fd2:	2322                	fld	ft6,8(sp)
     fd4:	13053007          	fld	ft0,304(a0)
     fd8:	eff04f83          	lbu	t6,-257(zero) # 0xfffffeff
     fdc:	13052007          	flw	ft0,304(a0)
     fe0:	cf82                	sw	zero,220(sp)
     fe2:	eff0                	fsw	fa2,92(a5)
     fe4:	1006                	c.slli	zero,0x21
     fe6:	1305                	addi	t1,t1,-31
     fe8:	4f82                	lw	t6,0(sp)
     fea:	eff0                	fsw	fa2,92(a5)
     fec:	9006                	c.add	zero,ra
     fee:	1305                	addi	t1,t1,-31
     ff0:	cf81                	beqz	a5,0x1008
     ff2:	eff0                	fsw	fa2,92(a5)
     ff4:	e002                	fsw	ft0,0(sp)
     ff6:	1305                	addi	t1,t1,-31
     ff8:	4f81                	li	t6,0
     ffa:	eff0                	fsw	fa2,92(a5)
     ffc:	e002                	fsw	ft0,0(sp)
     ffe:	1305                	addi	t1,t1,-31
    1000:	cf80                	sw	s0,24(a5)
    1002:	eff0                	fsw	fa2,92(a5)
    1004:	e0ff 9308 ffff 3783 	.insn	22, 0x0001639c58029352e340130303003783ffff9308e0ff
    100c:	0300 1303 e340 9352 
    1014:	5802 639c 0001 
    101a:	b708                	fsd	fa0,40(a4)
    101c:	f8ff                	.insn	2, 0xf8ff
    101e:	9388                	.insn	2, 0x9388
    1020:	0080                	addi	s0,sp,64
    1022:	f3ff3703          	.insn	4, 0xf3ff3703
    1026:	73401303          	lh	t1,1844(zero) # 0x734
    102a:	9352                	add	t1,t1,s4
    102c:	5802                	lw	a6,32(sp)
    102e:	6390                	flw	fa2,0(a5)
    1030:	0000                	unimp
    1032:	b788                	fsd	fa0,40(a5)
    1034:	4848                	lw	a0,20(s0)
    1036:	9388                	.insn	2, 0x9388
    1038:	2121                	jal	0x1440
    103a:	13123723          	.insn	4, 0x13123723
    103e:	e3401303          	lh	t1,-460(zero) # 0xfffffe34
    1042:	9352                	add	t1,t1,s4
    1044:	5800                	lw	s0,48(s0)
    1046:	6394                	flw	fa3,0(a5)
    1048:	c000                	sw	s0,0(s0)
    104a:	6f00                	flw	fs0,24(a4)
    104c:	cf82                	sw	zero,220(sp)
    104e:	eff0                	fsw	fa2,92(a5)
    1050:	8000                	.insn	2, 0x8000
    1052:	6f00                	flw	fs0,24(a4)
    1054:	1ffd                	addi	t6,t6,-1
    1056:	efe0                	fsw	fs0,92(a5)
    1058:	4100                	lw	s0,0(a0)
    105a:	8320                	.insn	2, 0x8320
    105c:	0000                	unimp
    105e:	6780                	flw	fs0,8(a5)
    1060:	1100                	addi	s0,sp,160
    1062:	2322                	fld	ft6,8(sp)
    1064:	c006                	sw	ra,0(sp)
    1066:	1305                	addi	t1,t1,-31
    1068:	5ffa                	lw	t6,188(sp)
    106a:	efe0                	fsw	fs0,92(a5)
    106c:	13057007          	.insn	4, 0x13057007
    1070:	dff9                	beqz	a5,0x104e
    1072:	efe0                	fsw	fs0,92(a5)
    1074:	e002                	fsw	ft0,0(sp)
    1076:	1305                	addi	t1,t1,-31
    1078:	5ff9                	li	t6,-2
    107a:	efe0                	fsw	fs0,92(a5)
    107c:	e002                	fsw	ft0,0(sp)
    107e:	1305                	addi	t1,t1,-31
    1080:	dff8                	sw	a4,124(a5)
    1082:	efe0                	fsw	fs0,92(a5)
    1084:	e002                	fsw	ft0,0(sp)
    1086:	1305                	addi	t1,t1,-31
    1088:	5ff8                	lw	a4,124(a5)
    108a:	efe0                	fsw	fs0,92(a5)
    108c:	e002                	fsw	ft0,0(sp)
    108e:	1305                	addi	t1,t1,-31
    1090:	efe0dff7          	.insn	4, 0xefe0dff7
    1094:	3412                	fld	fs0,288(sp)
    1096:	b758                	fsd	fa4,168(a4)
    1098:	93888867          	jalr	a6,-1736(a7)
    109c:	adde                	fsd	fs7,216(sp)
    109e:	37c8                	fld	fa0,168(a5)
    10a0:	f8ee                	fsw	fs11,112(sp)
    10a2:	1308                	addi	a0,sp,416
    10a4:	0000                	unimp
    10a6:	03003733          	mulhu	a4,zero,a6
    10aa:	13011303          	lh	t1,304(sp)
    10ae:	2320                	fld	fs0,64(a4)
    10b0:	0301                	addi	t1,t1,0
    10b2:	2322                	fld	ft6,8(sp)
    10b4:	0300                	addi	s0,sp,384
    10b6:	8322                	mv	t1,s0
    10b8:	5800                	lw	s0,48(s0)
    10ba:	639a                	flw	ft7,132(sp)
    10bc:	0800                	addi	s0,sp,16
    10be:	9308                	.insn	2, 0x9308
    10c0:	4300                	lw	s0,0(a4)
    10c2:	8322                	mv	t1,s0
    10c4:	5800                	lw	s0,48(s0)
    10c6:	6394                	flw	fa3,0(a5)
    10c8:	c000                	sw	s0,0(s0)
    10ca:	6f00                	flw	fs0,24(a4)
    10cc:	dffa                	sw	t5,252(sp)
    10ce:	efe0                	fsw	fs0,92(a5)
    10d0:	8000                	.insn	2, 0x8000
    10d2:	6f00                	flw	fs0,24(a4)
    10d4:	1ff5                	addi	t6,t6,-3
    10d6:	efe0                	fsw	fs0,92(a5)
    10d8:	4100                	lw	s0,0(a0)
    10da:	8320                	.insn	2, 0x8320
    10dc:	0000                	unimp
    10de:	6780                	flw	fs0,8(a5)
    10e0:	1100                	addi	s0,sp,160
    10e2:	2322                	fld	ft6,8(sp)
    10e4:	c006                	sw	ra,0(sp)
    10e6:	1305                	addi	t1,t1,-31
    10e8:	5ff2                	lw	t6,60(sp)
    10ea:	efe0                	fsw	fs0,92(a5)
    10ec:	8006                	c.mv	zero,ra
    10ee:	1305                	addi	t1,t1,-31
    10f0:	dff1                	beqz	a5,0x10cc
    10f2:	efe0                	fsw	fs0,92(a5)
    10f4:	e002                	fsw	ft0,0(sp)
    10f6:	1305                	addi	t1,t1,-31
    10f8:	5ff1                	li	t6,-4
    10fa:	efe0                	fsw	fs0,92(a5)
    10fc:	e002                	fsw	ft0,0(sp)
    10fe:	1305                	addi	t1,t1,-31
    1100:	dff0                	sw	a2,124(a5)
    1102:	efe0                	fsw	fs0,92(a5)
    1104:	e002                	fsw	ft0,0(sp)
    1106:	1305                	addi	t1,t1,-31
    1108:	5ff0                	lw	a2,124(a5)
    110a:	efe0                	fsw	fs0,92(a5)
    110c:	e002                	fsw	ft0,0(sp)
    110e:	1305                	addi	t1,t1,-31
    1110:	efe0dfef          	jal	t6,0xfff0e80e
    1114:	3412                	fld	fs0,288(sp)
    1116:	b758                	fsd	fa4,168(a4)
    1118:	93888867          	jalr	a6,-1736(a7)
    111c:	adde                	fsd	fs7,216(sp)
    111e:	37c8                	fld	fa0,168(a5)
    1120:	f8ee                	fsw	fs11,112(sp)
    1122:	1308                	addi	a0,sp,416
    1124:	0000                	unimp
    1126:	03013733          	mulhu	a4,sp,a6
    112a:	13011303          	lh	t1,304(sp)
    112e:	2320                	fld	fs0,64(a4)
    1130:	0301                	addi	t1,t1,0
    1132:	2322                	fld	ft6,8(sp)
    1134:	0000                	unimp
    1136:	b758                	fsd	fa4,168(a4)
    1138:	93888867          	jalr	a6,-1736(a7)
    113c:	0300                	addi	s0,sp,384
    113e:	8312                	mv	t1,tp
    1140:	5802                	lw	a6,32(sp)
    1142:	639c                	flw	fa5,0(a5)
    1144:	0000                	unimp
    1146:	b718                	fsd	fa4,40(a4)
    1148:	93884823          	.insn	4, 0x93884823
    114c:	2300                	fld	fs0,0(a4)
    114e:	8312                	mv	t1,tp
    1150:	5802                	lw	a6,32(sp)
    1152:	6394                	flw	fa3,0(a5)
    1154:	ffff                	.insn	2, 0xffff
    1156:	b7c8                	fsd	fa0,168(a5)
    1158:	f8ee                	fsw	fs11,112(sp)
    115a:	9388                	.insn	2, 0x9388
    115c:	4300                	lw	s0,0(a4)
    115e:	8312                	mv	t1,tp
    1160:	5800                	lw	s0,48(s0)
    1162:	639c                	flw	fa5,0(a5)
    1164:	ffff                	.insn	2, 0xffff
    1166:	b7e8                	fsd	fa0,232(a5)
    1168:	d8ea                	sw	s10,112(sp)
    116a:	9388                	.insn	2, 0x9388
    116c:	6300                	flw	fs0,0(a4)
    116e:	8312                	mv	t1,tp
    1170:	5800                	lw	s0,48(s0)
    1172:	6394                	flw	fa3,0(a5)
    1174:	c000                	sw	s0,0(s0)
    1176:	6f00                	flw	fs0,24(a4)
    1178:	1ff0                	addi	a2,sp,1020
    117a:	efe0                	fsw	fs0,92(a5)
    117c:	8000                	.insn	2, 0x8000
    117e:	6f00                	flw	fs0,24(a4)
    1180:	5fea                	lw	t6,184(sp)
    1182:	efe0                	fsw	fs0,92(a5)
    1184:	4100                	lw	s0,0(a0)
    1186:	8320                	.insn	2, 0x8320
    1188:	0000                	unimp
    118a:	6780                	flw	fs0,8(a5)
    118c:	1100                	addi	s0,sp,160
    118e:	2322                	fld	ft6,8(sp)
    1190:	c006                	sw	ra,0(sp)
    1192:	1305                	addi	t1,t1,-31
    1194:	efe09fe7          	.insn	4, 0xefe09fe7
    1198:	8006                	c.mv	zero,ra
    119a:	1305                	addi	t1,t1,-31
    119c:	efe01fe7          	.insn	4, 0xefe01fe7
    11a0:	13055007          	.insn	4, 0x13055007
    11a4:	9fe6                	add	t6,t6,s9
    11a6:	efe0                	fsw	fs0,92(a5)
    11a8:	e002                	fsw	ft0,0(sp)
    11aa:	1305                	addi	t1,t1,-31
    11ac:	1fe6                	slli	t6,t6,0x39
    11ae:	efe0                	fsw	fs0,92(a5)
    11b0:	e002                	fsw	ft0,0(sp)
    11b2:	1305                	addi	t1,t1,-31
    11b4:	9fe5                	.insn	2, 0x9fe5
    11b6:	efe0                	fsw	fs0,92(a5)
    11b8:	e002                	fsw	ft0,0(sp)
    11ba:	1305                	addi	t1,t1,-31
    11bc:	1fe5                	addi	t6,t6,-7
    11be:	efe0                	fsw	fs0,92(a5)
    11c0:	3412                	fld	fs0,288(sp)
    11c2:	b758                	fsd	fa4,168(a4)
    11c4:	93888867          	jalr	a6,-1736(a7)
    11c8:	adde                	fsd	fs7,216(sp)
    11ca:	37c8                	fld	fa0,168(a5)
    11cc:	f8ee                	fsw	fs11,112(sp)
    11ce:	1308                	addi	a0,sp,416
    11d0:	0000                	unimp
    11d2:	03023733          	mulhu	a4,tp,a6
    11d6:	13011303          	lh	t1,304(sp)
    11da:	2320                	fld	fs0,64(a4)
    11dc:	0301                	addi	t1,t1,0
    11de:	2322                	fld	ft6,8(sp)
    11e0:	0000                	unimp
    11e2:	b758                	fsd	fa4,168(a4)
    11e4:	93888867          	jalr	a6,-1736(a7)
    11e8:	0300                	addi	s0,sp,384
    11ea:	8352                	mv	t1,s4
    11ec:	5802                	lw	a6,32(sp)
    11ee:	639c                	flw	fa5,0(a5)
    11f0:	0000                	unimp
    11f2:	b718                	fsd	fa4,40(a4)
    11f4:	93884823          	.insn	4, 0x93884823
    11f8:	2300                	fld	fs0,0(a4)
    11fa:	8352                	mv	t1,s4
    11fc:	5802                	lw	a6,32(sp)
    11fe:	6394                	flw	fa3,0(a5)
    1200:	0000                	unimp
    1202:	b7c8                	fsd	fa0,168(a5)
    1204:	f8ee                	fsw	fs11,112(sp)
    1206:	9388                	.insn	2, 0x9388
    1208:	4300                	lw	s0,0(a4)
    120a:	8352                	mv	t1,s4
    120c:	5800                	lw	s0,48(s0)
    120e:	639c                	flw	fa5,0(a5)
    1210:	0000                	unimp
    1212:	b7e8                	fsd	fa0,232(a5)
    1214:	d8ea                	sw	s10,112(sp)
    1216:	9388                	.insn	2, 0x9388
    1218:	6300                	flw	fs0,0(a4)
    121a:	8352                	mv	t1,s4
    121c:	5800                	lw	s0,48(s0)
    121e:	6394                	flw	fa3,0(a5)
    1220:	c000                	sw	s0,0(s0)
    1222:	6f00                	flw	fs0,24(a4)
    1224:	5fe5                	li	t6,-7
    1226:	efe0                	fsw	fs0,92(a5)
    1228:	8000                	.insn	2, 0x8000
    122a:	6f00                	flw	fs0,24(a4)
    122c:	9fdf efe0 4100      	.insn	6, 0x4100efe09fdf
    1232:	8320                	.insn	2, 0x8320
    1234:	0000                	unimp
    1236:	6780                	flw	fs0,8(a5)
    1238:	1100                	addi	s0,sp,160
    123a:	2322                	fld	ft6,8(sp)
    123c:	c006                	sw	ra,0(sp)
    123e:	1305                	addi	t1,t1,-31
    1240:	dfdc                	sw	a5,60(a5)
    1242:	efe0                	fsw	fs0,92(a5)
    1244:	2006                	fld	ft0,64(sp)
    1246:	1305                	addi	t1,t1,-31
    1248:	5fdc                	lw	a5,60(a5)
    124a:	efe0                	fsw	fs0,92(a5)
    124c:	e002                	fsw	ft0,0(sp)
    124e:	1305                	addi	t1,t1,-31
    1250:	efe0dfdb          	.insn	4, 0xefe0dfdb
    1254:	e002                	fsw	ft0,0(sp)
    1256:	1305                	addi	t1,t1,-31
    1258:	efe05fdb          	.insn	4, 0xefe05fdb
    125c:	e002                	fsw	ft0,0(sp)
    125e:	1305                	addi	t1,t1,-31
    1260:	dfda                	sw	s6,252(sp)
    1262:	efe0                	fsw	fs0,92(a5)
    1264:	e002                	fsw	ft0,0(sp)
    1266:	1305                	addi	t1,t1,-31
    1268:	5fda                	lw	t6,180(sp)
    126a:	efe0                	fsw	fs0,92(a5)
    126c:	3412                	fld	fs0,288(sp)
    126e:	b758                	fsd	fa4,168(a4)
    1270:	93888867          	jalr	a6,-1736(a7)
    1274:	adde                	fsd	fs7,216(sp)
    1276:	37c8                	fld	fa0,168(a5)
    1278:	f8ee                	fsw	fs11,112(sp)
    127a:	1308                	addi	a0,sp,416
    127c:	0000                	unimp
    127e:	03023733          	mulhu	a4,tp,a6
    1282:	13011303          	lh	t1,304(sp)
    1286:	2320                	fld	fs0,64(a4)
    1288:	0301                	addi	t1,t1,0
    128a:	2322                	fld	ft6,8(sp)
    128c:	93088007          	.insn	4, 0x93088007
    1290:	0300                	addi	s0,sp,384
    1292:	8302                	jr	t1
    1294:	5802                	lw	a6,32(sp)
    1296:	6396                	flw	ft7,68(sp)
    1298:	6005                	c.lui	zero,0x1
    129a:	9308                	.insn	2, 0x9308
    129c:	1300                	addi	s0,sp,416
    129e:	8302                	jr	t1
    12a0:	5802                	lw	a6,32(sp)
    12a2:	6390                	flw	fa2,0(a5)
    12a4:	f0fe                	fsw	ft11,96(sp)
    12a6:	9308                	.insn	2, 0x9308
    12a8:	4300                	lw	s0,0(a4)
    12aa:	8302                	jr	t1
    12ac:	5800                	lw	s0,48(s0)
    12ae:	639a                	flw	ft7,132(sp)
    12b0:	e0fd                	bnez	s1,0x1396
    12b2:	9308                	.insn	2, 0x9308
    12b4:	7300                	flw	fs0,32(a4)
    12b6:	8302                	jr	t1
    12b8:	5800                	lw	s0,48(s0)
    12ba:	6394                	flw	fa3,0(a5)
    12bc:	c000                	sw	s0,0(s0)
    12be:	6f00                	flw	fs0,24(a4)
    12c0:	efe09fdb          	.insn	4, 0xefe09fdb
    12c4:	8000                	.insn	2, 0x8000
    12c6:	6f00                	flw	fs0,24(a4)
    12c8:	dfd5                	beqz	a5,0x1284
    12ca:	efe0                	fsw	fs0,92(a5)
    12cc:	4100                	lw	s0,0(a0)
    12ce:	8320                	.insn	2, 0x8320
    12d0:	0000                	unimp
    12d2:	6780                	flw	fs0,8(a5)
    12d4:	1100                	addi	s0,sp,160
    12d6:	2322                	fld	ft6,8(sp)
    12d8:	c006                	sw	ra,0(sp)
    12da:	1305                	addi	t1,t1,-31
    12dc:	efe01fd3          	.insn	4, 0xefe01fd3
    12e0:	2006                	fld	ft0,64(sp)
    12e2:	1305                	addi	t1,t1,-31
    12e4:	9fd2                	add	t6,t6,s4
    12e6:	efe0                	fsw	fs0,92(a5)
    12e8:	13055007          	.insn	4, 0x13055007
    12ec:	1fd2                	slli	t6,t6,0x34
    12ee:	efe0                	fsw	fs0,92(a5)
    12f0:	e002                	fsw	ft0,0(sp)
    12f2:	1305                	addi	t1,t1,-31
    12f4:	9fd1                	.insn	2, 0x9fd1
    12f6:	efe0                	fsw	fs0,92(a5)
    12f8:	e002                	fsw	ft0,0(sp)
    12fa:	1305                	addi	t1,t1,-31
    12fc:	1fd1                	addi	t6,t6,-12
    12fe:	efe0                	fsw	fs0,92(a5)
    1300:	e002                	fsw	ft0,0(sp)
    1302:	1305                	addi	t1,t1,-31
    1304:	9fd0                	.insn	2, 0x9fd0
    1306:	efe0                	fsw	fs0,92(a5)
    1308:	3412                	fld	fs0,288(sp)
    130a:	b758                	fsd	fa4,168(a4)
    130c:	93888867          	jalr	a6,-1736(a7)
    1310:	adde                	fsd	fs7,216(sp)
    1312:	37c8                	fld	fa0,168(a5)
    1314:	f8ee                	fsw	fs11,112(sp)
    1316:	1308                	addi	a0,sp,416
    1318:	0000                	unimp
    131a:	03043733          	mulhu	a4,s0,a6
    131e:	13011303          	lh	t1,304(sp)
    1322:	2320                	fld	fs0,64(a4)
    1324:	0301                	addi	t1,t1,0
    1326:	2322                	fld	ft6,8(sp)
    1328:	93088007          	.insn	4, 0x93088007
    132c:	0300                	addi	s0,sp,384
    132e:	8342                	mv	t1,a6
    1330:	5802                	lw	a6,32(sp)
    1332:	6396                	flw	ft7,68(sp)
    1334:	6005                	c.lui	zero,0x1
    1336:	9308                	.insn	2, 0x9308
    1338:	1300                	addi	s0,sp,416
    133a:	8342                	mv	t1,a6
    133c:	5802                	lw	a6,32(sp)
    133e:	6390                	flw	fa2,0(a5)
    1340:	f00e                	fsw	ft3,32(sp)
    1342:	9308                	.insn	2, 0x9308
    1344:	4300                	lw	s0,0(a4)
    1346:	8342                	mv	t1,a6
    1348:	5800                	lw	s0,48(s0)
    134a:	639a                	flw	ft7,132(sp)
    134c:	e00d                	bnez	s0,0x136e
    134e:	9308                	.insn	2, 0x9308
    1350:	7300                	flw	fs0,32(a4)
    1352:	8342                	mv	t1,a6
    1354:	5800                	lw	s0,48(s0)
    1356:	6394                	flw	fa3,0(a5)
    1358:	c000                	sw	s0,0(s0)
    135a:	6f00                	flw	fs0,24(a4)
    135c:	dfd1                	beqz	a5,0x12f8
    135e:	efe0                	fsw	fs0,92(a5)
    1360:	8000                	.insn	2, 0x8000
    1362:	6f00                	flw	fs0,24(a4)
    1364:	1fcc                	addi	a1,sp,1012
    1366:	efe0                	fsw	fs0,92(a5)
    1368:	4100                	lw	s0,0(a0)
    136a:	8320                	.insn	2, 0x8320
    136c:	0000                	unimp
    136e:	6780                	flw	fs0,8(a5)
    1370:	1100                	addi	s0,sp,160
    1372:	2322                	fld	ft6,8(sp)
    1374:	13053007          	fld	ft0,304(a0)
    1378:	5fc9                	li	t6,-14
    137a:	efe0                	fsw	fs0,92(a5)
    137c:	13057007          	.insn	4, 0x13057007
    1380:	dfc8                	sw	a0,60(a5)
    1382:	efe0                	fsw	fs0,92(a5)
    1384:	e002                	fsw	ft0,0(sp)
    1386:	1305                	addi	t1,t1,-31
    1388:	5fc8                	lw	a0,60(a5)
    138a:	efe0                	fsw	fs0,92(a5)
    138c:	e002                	fsw	ft0,0(sp)
    138e:	1305                	addi	t1,t1,-31
    1390:	efe0dfc7          	.insn	4, 0xefe0dfc7
    1394:	e002                	fsw	ft0,0(sp)
    1396:	1305                	addi	t1,t1,-31
    1398:	efe05fc7          	.insn	4, 0xefe05fc7
    139c:	e002                	fsw	ft0,0(sp)
    139e:	1305                	addi	t1,t1,-31
    13a0:	dfc6                	sw	a7,252(sp)
    13a2:	efe0                	fsw	fs0,92(a5)
    13a4:	3412                	fld	fs0,288(sp)
    13a6:	b758                	fsd	fa4,168(a4)
    13a8:	93888867          	jalr	a6,-1736(a7)
    13ac:	adde                	fsd	fs7,216(sp)
    13ae:	37c8                	fld	fa0,168(a5)
    13b0:	f8ee                	fsw	fs11,112(sp)
    13b2:	1308                	addi	a0,sp,416
    13b4:	0000                	unimp
    13b6:	03053733          	mulhu	a4,a0,a6
    13ba:	13011303          	lh	t1,304(sp)
    13be:	2320                	fld	fs0,64(a4)
    13c0:	0301                	addi	t1,t1,0
    13c2:	2322                	fld	ft6,8(sp)
    13c4:	0300                	addi	s0,sp,384
    13c6:	8322                	mv	t1,s0
    13c8:	5800                	lw	s0,48(s0)
    13ca:	639a                	flw	ft7,132(sp)
    13cc:	0800                	addi	s0,sp,16
    13ce:	9308                	.insn	2, 0x9308
    13d0:	4300                	lw	s0,0(a4)
    13d2:	8322                	mv	t1,s0
    13d4:	5800                	lw	s0,48(s0)
    13d6:	6394                	flw	fa3,0(a5)
    13d8:	c000                	sw	s0,0(s0)
    13da:	6f00                	flw	fs0,24(a4)
    13dc:	dfc9                	beqz	a5,0x1376
    13de:	efe0                	fsw	fs0,92(a5)
    13e0:	8000                	.insn	2, 0x8000
    13e2:	6f00                	flw	fs0,24(a4)
    13e4:	1fc4                	addi	s1,sp,1012
    13e6:	efe0                	fsw	fs0,92(a5)
    13e8:	4100                	lw	s0,0(a0)
    13ea:	8320                	.insn	2, 0x8320
    13ec:	0000                	unimp
    13ee:	6780                	flw	fs0,8(a5)
    13f0:	1100                	addi	s0,sp,160
    13f2:	2322                	fld	ft6,8(sp)
    13f4:	13053007          	fld	ft0,304(a0)
    13f8:	5fc1                	li	t6,-16
    13fa:	efe0                	fsw	fs0,92(a5)
    13fc:	8006                	c.mv	zero,ra
    13fe:	1305                	addi	t1,t1,-31
    1400:	dfc0                	sw	s0,60(a5)
    1402:	efe0                	fsw	fs0,92(a5)
    1404:	e002                	fsw	ft0,0(sp)
    1406:	1305                	addi	t1,t1,-31
    1408:	5fc0                	lw	s0,60(a5)
    140a:	efe0                	fsw	fs0,92(a5)
    140c:	e002                	fsw	ft0,0(sp)
    140e:	1305                	addi	t1,t1,-31
    1410:	efe0dfbf 1305e002 	.insn	8, 0x1305e002efe0dfbf
    1418:	efe05fbf 1305e002 	.insn	8, 0x1305e002efe05fbf
    1420:	dfbe                	sw	a5,252(sp)
    1422:	efe0                	fsw	fs0,92(a5)
    1424:	3412                	fld	fs0,288(sp)
    1426:	b758                	fsd	fa4,168(a4)
    1428:	93888867          	jalr	a6,-1736(a7)
    142c:	adde                	fsd	fs7,216(sp)
    142e:	37c8                	fld	fa0,168(a5)
    1430:	f8ee                	fsw	fs11,112(sp)
    1432:	1308                	addi	a0,sp,416
    1434:	0000                	unimp
    1436:	03063733          	mulhu	a4,a2,a6
    143a:	13011303          	lh	t1,304(sp)
    143e:	2310                	fld	fa2,0(a4)
    1440:	0301                	addi	t1,t1,0
    1442:	2312                	fld	ft6,256(sp)
    1444:	1301                	addi	t1,t1,-32
    1446:	00002313          	slti	t1,zero,0
    144a:	b758                	fsd	fa4,168(a4)
    144c:	93888867          	jalr	a6,-1736(a7)
    1450:	0300                	addi	s0,sp,384
    1452:	8322                	mv	t1,s0
    1454:	5800                	lw	s0,48(s0)
    1456:	639c                	flw	fa5,0(a5)
    1458:	7856                	flw	fa6,116(sp)
    145a:	b7c8                	fsd	fa0,168(a5)
    145c:	f8ee                	fsw	fs11,112(sp)
    145e:	9388                	.insn	2, 0x9388
    1460:	4300                	lw	s0,0(a4)
    1462:	8322                	mv	t1,s0
    1464:	5800                	lw	s0,48(s0)
    1466:	6394                	flw	fa3,0(a5)
    1468:	c000                	sw	s0,0(s0)
    146a:	6f00                	flw	fs0,24(a4)
    146c:	dfc0                	sw	s0,60(a5)
    146e:	efe0                	fsw	fs0,92(a5)
    1470:	8000                	.insn	2, 0x8000
    1472:	6f00                	flw	fs0,24(a4)
    1474:	efe01fbb          	.insn	4, 0xefe01fbb
    1478:	4100                	lw	s0,0(a0)
    147a:	8320                	.insn	2, 0x8320
    147c:	0000                	unimp
    147e:	6780                	flw	fs0,8(a5)
    1480:	1100                	addi	s0,sp,160
    1482:	2322                	fld	ft6,8(sp)
    1484:	13053007          	fld	ft0,304(a0)
    1488:	5fb8                	lw	a4,120(a5)
    148a:	efe0                	fsw	fs0,92(a5)
    148c:	2006                	fld	ft0,64(sp)
    148e:	1305                	addi	t1,t1,-31
    1490:	efe0dfb7          	lui	t6,0xefe0d
    1494:	e002                	fsw	ft0,0(sp)
    1496:	1305                	addi	t1,t1,-31
    1498:	efe05fb7          	lui	t6,0xefe05
    149c:	e002                	fsw	ft0,0(sp)
    149e:	1305                	addi	t1,t1,-31
    14a0:	dfb6                	sw	a3,252(sp)
    14a2:	efe0                	fsw	fs0,92(a5)
    14a4:	e002                	fsw	ft0,0(sp)
    14a6:	1305                	addi	t1,t1,-31
    14a8:	5fb6                	lw	t6,108(sp)
    14aa:	efe0                	fsw	fs0,92(a5)
    14ac:	e002                	fsw	ft0,0(sp)
    14ae:	1305                	addi	t1,t1,-31
    14b0:	dfb5                	beqz	a5,0x142c
    14b2:	efe0                	fsw	fs0,92(a5)
    14b4:	3412                	fld	fs0,288(sp)
    14b6:	b758                	fsd	fa4,168(a4)
    14b8:	93888867          	jalr	a6,-1736(a7)
    14bc:	adde                	fsd	fs7,216(sp)
    14be:	37c8                	fld	fa0,168(a5)
    14c0:	f8ee                	fsw	fs11,112(sp)
    14c2:	1308                	addi	a0,sp,416
    14c4:	0000                	unimp
    14c6:	03073733          	mulhu	a4,a4,a6
    14ca:	13011303          	lh	t1,304(sp)
    14ce:	2300                	fld	fs0,0(a4)
    14d0:	0301                	addi	t1,t1,0
    14d2:	a300                	fsd	fs0,0(a4)
    14d4:	1301                	addi	t1,t1,-32
    14d6:	2301                	jal	0x19d6
    14d8:	1301                	addi	t1,t1,-32
    14da:	a301                	j	0x19da
    14dc:	7878                	flw	fa4,116(s0)
    14de:	b7f8                	fsd	fa4,232(a5)
    14e0:	938888f7          	.insn	4, 0x938888f7
    14e4:	0300                	addi	s0,sp,384
    14e6:	8322                	mv	t1,s0
    14e8:	5800                	lw	s0,48(s0)
    14ea:	6394                	flw	fa3,0(a5)
    14ec:	c000                	sw	s0,0(s0)
    14ee:	6f00                	flw	fs0,24(a4)
    14f0:	9fb8                	.insn	2, 0x9fb8
    14f2:	efe0                	fsw	fs0,92(a5)
    14f4:	8000                	.insn	2, 0x8000
    14f6:	6f00                	flw	fs0,24(a4)
    14f8:	dfb2                	sw	a2,252(sp)
    14fa:	efe0                	fsw	fs0,92(a5)
    14fc:	4100                	lw	s0,0(a0)
    14fe:	8320                	.insn	2, 0x8320
    1500:	0000                	unimp
    1502:	6780                	flw	fs0,8(a5)
    1504:	1100                	addi	s0,sp,160
    1506:	2322                	fld	ft6,8(sp)
    1508:	1006                	c.slli	zero,0x21
    150a:	1305                	addi	t1,t1,-31
    150c:	1fb0                	addi	a2,sp,1016
    150e:	efe0                	fsw	fs0,92(a5)
    1510:	13055007          	.insn	4, 0x13055007
    1514:	efe09faf          	.insn	4, 0xefe09faf
    1518:	9006                	c.add	zero,ra
    151a:	1305                	addi	t1,t1,-31
    151c:	efe01faf          	.insn	4, 0xefe01faf
    1520:	13050007          	.insn	4, 0x13050007
    1524:	9fae                	add	t6,t6,a1
    1526:	efe0                	fsw	fs0,92(a5)
    1528:	3006                	fld	ft0,96(sp)
    152a:	1305                	addi	t1,t1,-31
    152c:	1fae                	slli	t6,t6,0x2b
    152e:	efe0                	fsw	fs0,92(a5)
    1530:	e002                	fsw	ft0,0(sp)
    1532:	1305                	addi	t1,t1,-31
    1534:	9fad                	.insn	2, 0x9fad
    1536:	efe0                	fsw	fs0,92(a5)
    1538:	0000                	unimp
    153a:	9772                	add	a4,a4,t3
    153c:	0000                	unimp
    153e:	9708                	.insn	2, 0x9708
    1540:	c8ff 9388 7000 1303 	.insn	18, 0x5800b38868001313c300130370009388c8ff
    1548:	c300 1313 6800 b388 
    1550:	5800 
    1552:	6394                	flw	fa3,0(a5)
    1554:	c000                	sw	s0,0(s0)
    1556:	6f00                	flw	fs0,24(a4)
    1558:	1fb2                	slli	t6,t6,0x2c
    155a:	efe0                	fsw	fs0,92(a5)
    155c:	8000                	.insn	2, 0x8000
    155e:	6f00                	flw	fs0,24(a4)
    1560:	5fac                	lw	a1,120(a5)
    1562:	efe0                	fsw	fs0,92(a5)
    1564:	4100                	lw	s0,0(a0)
    1566:	8320                	.insn	2, 0x8320
    1568:	0000                	unimp
    156a:	6780                	flw	fs0,8(a5)
    156c:	1100                	addi	s0,sp,160
    156e:	2322                	fld	ft6,8(sp)
    1570:	c006                	sw	ra,0(sp)
    1572:	1305                	addi	t1,t1,-31
    1574:	9fa9                	.insn	2, 0x9fa9
    1576:	efe0                	fsw	fs0,92(a5)
    1578:	13055007          	.insn	4, 0x13055007
    157c:	1fa9                	addi	t6,t6,-22 # 0xefe04fea
    157e:	efe0                	fsw	fs0,92(a5)
    1580:	9006                	c.add	zero,ra
    1582:	1305                	addi	t1,t1,-31
    1584:	9fa8                	.insn	2, 0x9fa8
    1586:	efe0                	fsw	fs0,92(a5)
    1588:	e002                	fsw	ft0,0(sp)
    158a:	1305                	addi	t1,t1,-31
    158c:	1fa8                	addi	a0,sp,1016
    158e:	efe0                	fsw	fs0,92(a5)
    1590:	e002                	fsw	ft0,0(sp)
    1592:	1305                	addi	t1,t1,-31
    1594:	efe09fa7          	.insn	4, 0xefe09fa7
    1598:	e002                	fsw	ft0,0(sp)
    159a:	1305                	addi	t1,t1,-31
    159c:	efe01fa7          	.insn	4, 0xefe01fa7
    15a0:	0000                	unimp
    15a2:	b772                	fsd	ft8,424(sp)
    15a4:	7000                	flw	fs0,32(s0)
    15a6:	9308                	.insn	2, 0x9308
    15a8:	c800                	sw	s0,16(s0)
    15aa:	9398                	.insn	2, 0x9398
    15ac:	5800                	lw	s0,48(s0)
    15ae:	6394                	flw	fa3,0(a5)
    15b0:	c000                	sw	s0,0(s0)
    15b2:	6f00                	flw	fs0,24(a4)
    15b4:	5fac                	lw	a1,120(a5)
    15b6:	efe0                	fsw	fs0,92(a5)
    15b8:	8000                	.insn	2, 0x8000
    15ba:	6f00                	flw	fs0,24(a4)
    15bc:	9fa6                	add	t6,t6,s1
    15be:	efe0                	fsw	fs0,92(a5)
    15c0:	4100                	lw	s0,0(a0)
    15c2:	8320                	.insn	2, 0x8320
    15c4:	0000                	unimp
    15c6:	6780                	flw	fs0,8(a5)
    15c8:	1100                	addi	s0,sp,160
    15ca:	2322                	fld	ft6,8(sp)
    15cc:	2006                	fld	ft0,64(sp)
    15ce:	1305                	addi	t1,t1,-31
    15d0:	efe0dfa3          	.insn	4, 0xefe0dfa3
    15d4:	5006                	.insn	2, 0x5006
    15d6:	1305                	addi	t1,t1,-31
    15d8:	efe05fa3          	.insn	4, 0xefe05fa3
    15dc:	13051007          	.insn	4, 0x13051007
    15e0:	dfa2                	sw	s0,252(sp)
    15e2:	efe0                	fsw	fs0,92(a5)
    15e4:	e002                	fsw	ft0,0(sp)
    15e6:	1305                	addi	t1,t1,-31
    15e8:	5fa2                	lw	t6,40(sp)
    15ea:	efe0                	fsw	fs0,92(a5)
    15ec:	e002                	fsw	ft0,0(sp)
    15ee:	1305                	addi	t1,t1,-31
    15f0:	dfa1                	beqz	a5,0x1548
    15f2:	efe0                	fsw	fs0,92(a5)
    15f4:	e002                	fsw	ft0,0(sp)
    15f6:	1305                	addi	t1,t1,-31
    15f8:	5fa1                	li	t6,-24
    15fa:	efe0                	fsw	fs0,92(a5)
    15fc:	0000                	unimp
    15fe:	9302                	jalr	t1
    1600:	0000                	unimp
    1602:	62001303          	lh	t1,1568(zero) # 0x620
    1606:	6386                	flw	ft7,64(sp)
    1608:	400a                	.insn	2, 0x400a
    160a:	6f00                	flw	fs0,24(a4)
    160c:	c000                	sw	s0,0(s0)
    160e:	6f00                	flw	fs0,24(a4)
    1610:	62fe                	flw	ft5,220(sp)
    1612:	e38e                	fsw	ft3,196(sp)
    1614:	8009                	srli	s0,s0,0x2
    1616:	6f00                	flw	fs0,24(a4)
    1618:	1000                	addi	s0,sp,32
    161a:	9302                	jalr	t1
    161c:	1000                	addi	s0,sp,32
    161e:	62001303          	lh	t1,1568(zero) # 0x620
    1622:	6386                	flw	ft7,64(sp)
    1624:	8008                	.insn	2, 0x8008
    1626:	6f00                	flw	fs0,24(a4)
    1628:	c000                	sw	s0,0(s0)
    162a:	6f00                	flw	fs0,24(a4)
    162c:	62fe                	flw	ft5,220(sp)
    162e:	e38e                	fsw	ft3,196(sp)
    1630:	6f00c007          	.insn	4, 0x6f00c007
    1634:	f0ff                	.insn	2, 0xf0ff
    1636:	9302                	jalr	t1
    1638:	f0ff                	.insn	2, 0xf0ff
    163a:	62001303          	lh	t1,1568(zero) # 0x620
    163e:	6386                	flw	ft7,64(sp)
    1640:	c006                	sw	ra,0(sp)
    1642:	6f00                	flw	fs0,24(a4)
    1644:	c000                	sw	s0,0(s0)
    1646:	6f00                	flw	fs0,24(a4)
    1648:	62fe                	flw	ft5,220(sp)
    164a:	e38e                	fsw	ft3,196(sp)
    164c:	0006                	c.slli	zero,0x1
    164e:	6f00                	flw	fs0,24(a4)
    1650:	1000                	addi	s0,sp,32
    1652:	9302                	jalr	t1
    1654:	f0ff                	.insn	2, 0xf0ff
    1656:	62041303          	lh	t1,1568(s0)
    165a:	638a                	flw	ft7,128(sp)
    165c:	8000                	.insn	2, 0x8000
    165e:	6f00                	flw	fs0,24(a4)
    1660:	c004                	sw	s1,0(s0)
    1662:	6f00                	flw	fs0,24(a4)
    1664:	62fe                	flw	ft5,220(sp)
    1666:	e38e                	fsw	ft3,196(sp)
    1668:	1000                	addi	s0,sp,32
    166a:	9302                	jalr	t1
    166c:	5200                	lw	s0,32(a2)
    166e:	6386                	flw	ft7,64(sp)
    1670:	6f00c003          	lbu	zero,1776(ra)
    1674:	c000                	sw	s0,0(s0)
    1676:	6f00                	flw	fs0,24(a4)
    1678:	52fe                	lw	t0,252(sp)
    167a:	e38e                	fsw	ft3,196(sp)
    167c:	6f000003          	lb	zero,1776(zero) # 0x6f0
    1680:	1000                	addi	s0,sp,32
    1682:	9302                	jalr	t1
    1684:	0000                	unimp
    1686:	1300                	addi	s0,sp,416
    1688:	0000                	unimp
    168a:	1300                	addi	s0,sp,416
    168c:	1000                	addi	s0,sp,32
    168e:	00001303          	lh	t1,0(zero) # 0x0
    1692:	1300                	addi	s0,sp,416
    1694:	6200                	flw	fs0,0(a2)
    1696:	6386                	flw	ft7,64(sp)
    1698:	4001                	c.li	zero,0
    169a:	6f00                	flw	fs0,24(a4)
    169c:	c000                	sw	s0,0(s0)
    169e:	6f00                	flw	fs0,24(a4)
    16a0:	62fe                	flw	ft5,220(sp)
    16a2:	e38e                	fsw	ft3,196(sp)
    16a4:	8000                	.insn	2, 0x8000
    16a6:	6f00                	flw	fs0,24(a4)
    16a8:	c000                	sw	s0,0(s0)
    16aa:	6f00                	flw	fs0,24(a4)
    16ac:	df9c                	sw	a5,56(a5)
    16ae:	efe0                	fsw	fs0,92(a5)
    16b0:	8000                	.insn	2, 0x8000
    16b2:	6f00                	flw	fs0,24(a4)
    16b4:	efe01f97          	auipc	t6,0xefe01
    16b8:	4100                	lw	s0,0(a0)
    16ba:	8320                	.insn	2, 0x8320
    16bc:	0000                	unimp
    16be:	6780                	flw	fs0,8(a5)
    16c0:	1100                	addi	s0,sp,160
    16c2:	2322                	fld	ft6,8(sp)
    16c4:	2006                	fld	ft0,64(sp)
    16c6:	1305                	addi	t1,t1,-31
    16c8:	5f94                	lw	a3,56(a5)
    16ca:	efe0                	fsw	fs0,92(a5)
    16cc:	e006                	fsw	ft1,0(sp)
    16ce:	1305                	addi	t1,t1,-31
    16d0:	efe0df93          	.insn	4, 0xefe0df93
    16d4:	5006                	.insn	2, 0x5006
    16d6:	1305                	addi	t1,t1,-31
    16d8:	efe05f93          	.insn	4, 0xefe05f93
    16dc:	e002                	fsw	ft0,0(sp)
    16de:	1305                	addi	t1,t1,-31
    16e0:	df92                	sw	tp,252(sp)
    16e2:	efe0                	fsw	fs0,92(a5)
    16e4:	e002                	fsw	ft0,0(sp)
    16e6:	1305                	addi	t1,t1,-31
    16e8:	5f92                	lw	t6,36(sp)
    16ea:	efe0                	fsw	fs0,92(a5)
    16ec:	e002                	fsw	ft0,0(sp)
    16ee:	1305                	addi	t1,t1,-31
    16f0:	df91                	beqz	a5,0x160c
    16f2:	efe0                	fsw	fs0,92(a5)
    16f4:	0000                	unimp
    16f6:	9302                	jalr	t1
    16f8:	1000                	addi	s0,sp,32
    16fa:	62001303          	lh	t1,1568(zero) # 0x620
    16fe:	6396                	flw	ft7,68(sp)
    1700:	000a                	c.slli	zero,0x2
    1702:	6f00                	flw	fs0,24(a4)
    1704:	c000                	sw	s0,0(s0)
    1706:	6f00                	flw	fs0,24(a4)
    1708:	62fe                	flw	ft5,220(sp)
    170a:	e39e                	fsw	ft7,196(sp)
    170c:	4009                	c.li	zero,2
    170e:	6f00                	flw	fs0,24(a4)
    1710:	1000                	addi	s0,sp,32
    1712:	9302                	jalr	t1
    1714:	f0ff                	.insn	2, 0xf0ff
    1716:	62001303          	lh	t1,1568(zero) # 0x620
    171a:	6396                	flw	ft7,68(sp)
    171c:	4008                	lw	a0,0(s0)
    171e:	6f00                	flw	fs0,24(a4)
    1720:	c000                	sw	s0,0(s0)
    1722:	6f00                	flw	fs0,24(a4)
    1724:	62fe                	flw	ft5,220(sp)
    1726:	e39e                	fsw	ft7,196(sp)
    1728:	6f008007          	.insn	4, 0x6f008007
    172c:	f0ff                	.insn	2, 0xf0ff
    172e:	9302                	jalr	t1
    1730:	1000                	addi	s0,sp,32
    1732:	62001303          	lh	t1,1568(zero) # 0x620
    1736:	6396                	flw	ft7,68(sp)
    1738:	8006                	c.mv	zero,ra
    173a:	6f00                	flw	fs0,24(a4)
    173c:	c000                	sw	s0,0(s0)
    173e:	6f00                	flw	fs0,24(a4)
    1740:	62fe                	flw	ft5,220(sp)
    1742:	e39e                	fsw	ft7,196(sp)
    1744:	c005                	beqz	s0,0x1764
    1746:	6f00                	flw	fs0,24(a4)
    1748:	1000                	addi	s0,sp,32
    174a:	9302                	jalr	t1
    174c:	1000                	addi	s0,sp,32
    174e:	62041303          	lh	t1,1568(s0)
    1752:	6398                	flw	fa4,0(a5)
    1754:	8000                	.insn	2, 0x8000
    1756:	6f00                	flw	fs0,24(a4)
    1758:	8004                	.insn	2, 0x8004
    175a:	6f00                	flw	fs0,24(a4)
    175c:	62fe                	flw	ft5,220(sp)
    175e:	e39e                	fsw	ft7,196(sp)
    1760:	1000                	addi	s0,sp,32
    1762:	9302                	jalr	t1
    1764:	5202                	lw	tp,32(sp)
    1766:	639e                	flw	ft7,196(sp)
    1768:	8000                	.insn	2, 0x8000
    176a:	6f00                	flw	fs0,24(a4)
    176c:	6f004003          	lbu	zero,1776(zero) # 0x6f0
    1770:	52fe                	lw	t0,252(sp)
    1772:	e39e                	fsw	ft7,196(sp)
    1774:	1000                	addi	s0,sp,32
    1776:	9302                	jalr	t1
    1778:	0000                	unimp
    177a:	1300                	addi	s0,sp,416
    177c:	0000                	unimp
    177e:	1300                	addi	s0,sp,416
    1780:	f0ff                	.insn	2, 0xf0ff
    1782:	00001303          	lh	t1,0(zero) # 0x0
    1786:	1300                	addi	s0,sp,416
    1788:	6200                	flw	fs0,0(a2)
    178a:	6396                	flw	ft7,68(sp)
    178c:	4001                	c.li	zero,0
    178e:	6f00                	flw	fs0,24(a4)
    1790:	c000                	sw	s0,0(s0)
    1792:	6f00                	flw	fs0,24(a4)
    1794:	62fe                	flw	ft5,220(sp)
    1796:	e39e                	fsw	ft7,196(sp)
    1798:	8000                	.insn	2, 0x8000
    179a:	6f00                	flw	fs0,24(a4)
    179c:	c000                	sw	s0,0(s0)
    179e:	6f00                	flw	fs0,24(a4)
    17a0:	9f8d                	.insn	2, 0x9f8d
    17a2:	efe0                	fsw	fs0,92(a5)
    17a4:	8000                	.insn	2, 0x8000
    17a6:	6f00                	flw	fs0,24(a4)
    17a8:	efe0df87          	.insn	4, 0xefe0df87
    17ac:	4100                	lw	s0,0(a0)
    17ae:	8320                	.insn	2, 0x8320
    17b0:	0000                	unimp
    17b2:	6780                	flw	fs0,8(a5)
    17b4:	1100                	addi	s0,sp,160
    17b6:	2322                	fld	ft6,8(sp)
    17b8:	2006                	fld	ft0,64(sp)
    17ba:	1305                	addi	t1,t1,-31
    17bc:	1f85                	addi	t6,t6,-31 # 0xefe02695
    17be:	efe0                	fsw	fs0,92(a5)
    17c0:	c006                	sw	ra,0(sp)
    17c2:	1305                	addi	t1,t1,-31
    17c4:	9f84                	.insn	2, 0x9f84
    17c6:	efe0                	fsw	fs0,92(a5)
    17c8:	13054007          	.insn	4, 0x13054007
    17cc:	1f84                	addi	s1,sp,1008
    17ce:	efe0                	fsw	fs0,92(a5)
    17d0:	e002                	fsw	ft0,0(sp)
    17d2:	1305                	addi	t1,t1,-31
    17d4:	efe09f83          	lh	t6,-258(ra)
    17d8:	e002                	fsw	ft0,0(sp)
    17da:	1305                	addi	t1,t1,-31
    17dc:	efe01f83          	lh	t6,-258(zero) # 0xfffffefe
    17e0:	e002                	fsw	ft0,0(sp)
    17e2:	1305                	addi	t1,t1,-31
    17e4:	9f82                	jalr	t6
    17e6:	efe0                	fsw	fs0,92(a5)
    17e8:	0000                	unimp
    17ea:	9302                	jalr	t1
    17ec:	1000                	addi	s0,sp,32
    17ee:	62001303          	lh	t1,1568(zero) # 0x620
    17f2:	63c6                	flw	ft7,80(sp)
    17f4:	c009                	beqz	s0,0x17f6
    17f6:	6f00                	flw	fs0,24(a4)
    17f8:	c000                	sw	s0,0(s0)
    17fa:	6f00                	flw	fs0,24(a4)
    17fc:	62fe                	flw	ft5,220(sp)
    17fe:	e3ce                	fsw	fs3,196(sp)
    1800:	0009                	c.nop	2
    1802:	6f00                	flw	fs0,24(a4)
    1804:	f0ff                	.insn	2, 0xf0ff
    1806:	9302                	jalr	t1
    1808:	1000                	addi	s0,sp,32
    180a:	62001303          	lh	t1,1568(zero) # 0x620
    180e:	63c6                	flw	ft7,80(sp)
    1810:	0008                	.insn	2, 0x0008
    1812:	6f00                	flw	fs0,24(a4)
    1814:	c000                	sw	s0,0(s0)
    1816:	6f00                	flw	fs0,24(a4)
    1818:	62fe                	flw	ft5,220(sp)
    181a:	e3ce                	fsw	fs3,196(sp)
    181c:	6f004007          	.insn	4, 0x6f004007
    1820:	1000                	addi	s0,sp,32
    1822:	9302                	jalr	t1
    1824:	f0ff                	.insn	2, 0xf0ff
    1826:	62061303          	lh	t1,1568(a2)
    182a:	63c4                	flw	fs1,4(a5)
    182c:	8000                	.insn	2, 0x8000
    182e:	6f00                	flw	fs0,24(a4)
    1830:	0006                	c.slli	zero,0x1
    1832:	6f00                	flw	fs0,24(a4)
    1834:	62fe                	flw	ft5,220(sp)
    1836:	e3ce                	fsw	fs3,196(sp)
    1838:	f0ff                	.insn	2, 0xf0ff
    183a:	9302                	jalr	t1
    183c:	e0ff 1303 6204 63c8 	.insn	22, 0x1000e3ce62fe6f0080046f00800063c862041303e0ff
    1844:	8000 6f00 8004 6f00 
    184c:	62fe e3ce 1000 
    1852:	9302                	jalr	t1
    1854:	5202                	lw	tp,32(sp)
    1856:	63ce                	flw	ft7,208(sp)
    1858:	8000                	.insn	2, 0x8000
    185a:	6f00                	flw	fs0,24(a4)
    185c:	6f004003          	lbu	zero,1776(zero) # 0x6f0
    1860:	52fe                	lw	t0,252(sp)
    1862:	e3ce                	fsw	fs3,196(sp)
    1864:	0000                	unimp
    1866:	9302                	jalr	t1
    1868:	0000                	unimp
    186a:	1300                	addi	s0,sp,416
    186c:	0000                	unimp
    186e:	1300                	addi	s0,sp,416
    1870:	1000                	addi	s0,sp,32
    1872:	00001303          	lh	t1,0(zero) # 0x0
    1876:	1300                	addi	s0,sp,416
    1878:	6200                	flw	fs0,0(a2)
    187a:	63c6                	flw	ft7,80(sp)
    187c:	4001                	c.li	zero,0
    187e:	6f00                	flw	fs0,24(a4)
    1880:	c000                	sw	s0,0(s0)
    1882:	6f00                	flw	fs0,24(a4)
    1884:	62fe                	flw	ft5,220(sp)
    1886:	e3ce                	fsw	fs3,196(sp)
    1888:	8000                	.insn	2, 0x8000
    188a:	6f00                	flw	fs0,24(a4)
    188c:	c000                	sw	s0,0(s0)
    188e:	6f00                	flw	fs0,24(a4)
    1890:	8ffe                	mv	t6,t6
    1892:	efe0                	fsw	fs0,92(a5)
    1894:	8000                	.insn	2, 0x8000
    1896:	6f00                	flw	fs0,24(a4)
    1898:	cff8                	sw	a4,92(a5)
    189a:	efe0                	fsw	fs0,92(a5)
    189c:	4100                	lw	s0,0(a0)
    189e:	8320                	.insn	2, 0x8320
    18a0:	0000                	unimp
    18a2:	6780                	flw	fs0,8(a5)
    18a4:	1100                	addi	s0,sp,160
    18a6:	2322                	fld	ft6,8(sp)
    18a8:	2006                	fld	ft0,64(sp)
    18aa:	1305                	addi	t1,t1,-31
    18ac:	0ff6                	slli	t6,t6,0x1d
    18ae:	efe0                	fsw	fs0,92(a5)
    18b0:	c006                	sw	ra,0(sp)
    18b2:	1305                	addi	t1,t1,-31
    18b4:	8ff5                	and	a5,a5,a3
    18b6:	efe0                	fsw	fs0,92(a5)
    18b8:	13054007          	.insn	4, 0x13054007
    18bc:	0ff5                	addi	t6,t6,29
    18be:	efe0                	fsw	fs0,92(a5)
    18c0:	13055007          	.insn	4, 0x13055007
    18c4:	8ff4                	.insn	2, 0x8ff4
    18c6:	efe0                	fsw	fs0,92(a5)
    18c8:	e002                	fsw	ft0,0(sp)
    18ca:	1305                	addi	t1,t1,-31
    18cc:	0ff4                	addi	a3,sp,988
    18ce:	efe0                	fsw	fs0,92(a5)
    18d0:	e002                	fsw	ft0,0(sp)
    18d2:	1305                	addi	t1,t1,-31
    18d4:	efe08ff3          	.insn	4, 0xefe08ff3
    18d8:	0000                	unimp
    18da:	9302                	jalr	t1
    18dc:	1000                	addi	s0,sp,32
    18de:	62001303          	lh	t1,1568(zero) # 0x620
    18e2:	63e6                	flw	ft7,88(sp)
    18e4:	c009                	beqz	s0,0x18e6
    18e6:	6f00                	flw	fs0,24(a4)
    18e8:	c000                	sw	s0,0(s0)
    18ea:	6f00                	flw	fs0,24(a4)
    18ec:	62fe                	flw	ft5,220(sp)
    18ee:	e3ee                	fsw	fs11,196(sp)
    18f0:	0009                	c.nop	2
    18f2:	6f00                	flw	fs0,24(a4)
    18f4:	1000                	addi	s0,sp,32
    18f6:	9302                	jalr	t1
    18f8:	f0ff                	.insn	2, 0xf0ff
    18fa:	62001303          	lh	t1,1568(zero) # 0x620
    18fe:	63e6                	flw	ft7,88(sp)
    1900:	0008                	.insn	2, 0x0008
    1902:	6f00                	flw	fs0,24(a4)
    1904:	c000                	sw	s0,0(s0)
    1906:	6f00                	flw	fs0,24(a4)
    1908:	62fe                	flw	ft5,220(sp)
    190a:	e3ee                	fsw	fs11,196(sp)
    190c:	6f004007          	.insn	4, 0x6f004007
    1910:	f0ff                	.insn	2, 0xf0ff
    1912:	9302                	jalr	t1
    1914:	e0ff 1303 6206 63e4 	.insn	22, 0xf0ffe3ee62fe6f0000066f00800063e462061303e0ff
    191c:	8000 6f00 0006 6f00 
    1924:	62fe e3ee f0ff 
    192a:	9302                	jalr	t1
    192c:	1000                	addi	s0,sp,32
    192e:	62041303          	lh	t1,1568(s0)
    1932:	63e8                	flw	fa0,68(a5)
    1934:	8000                	.insn	2, 0x8000
    1936:	6f00                	flw	fs0,24(a4)
    1938:	8004                	.insn	2, 0x8004
    193a:	6f00                	flw	fs0,24(a4)
    193c:	62fe                	flw	ft5,220(sp)
    193e:	e3ee                	fsw	fs11,196(sp)
    1940:	1000                	addi	s0,sp,32
    1942:	9302                	jalr	t1
    1944:	5202                	lw	tp,32(sp)
    1946:	63ee                	flw	ft7,216(sp)
    1948:	8000                	.insn	2, 0x8000
    194a:	6f00                	flw	fs0,24(a4)
    194c:	6f004003          	lbu	zero,1776(zero) # 0x6f0
    1950:	52fe                	lw	t0,252(sp)
    1952:	e3ee                	fsw	fs11,196(sp)
    1954:	0000                	unimp
    1956:	9302                	jalr	t1
    1958:	0000                	unimp
    195a:	1300                	addi	s0,sp,416
    195c:	0000                	unimp
    195e:	1300                	addi	s0,sp,416
    1960:	1000                	addi	s0,sp,32
    1962:	00001303          	lh	t1,0(zero) # 0x0
    1966:	1300                	addi	s0,sp,416
    1968:	6200                	flw	fs0,0(a2)
    196a:	63e6                	flw	ft7,88(sp)
    196c:	4001                	c.li	zero,0
    196e:	6f00                	flw	fs0,24(a4)
    1970:	c000                	sw	s0,0(s0)
    1972:	6f00                	flw	fs0,24(a4)
    1974:	62fe                	flw	ft5,220(sp)
    1976:	e3ee                	fsw	fs11,196(sp)
    1978:	8000                	.insn	2, 0x8000
    197a:	6f00                	flw	fs0,24(a4)
    197c:	c000                	sw	s0,0(s0)
    197e:	6f00                	flw	fs0,24(a4)
    1980:	efe08fef          	jal	t6,0xfff0a07e
    1984:	8000                	.insn	2, 0x8000
    1986:	6f00                	flw	fs0,24(a4)
    1988:	cfe9                	beqz	a5,0x1a62
    198a:	efe0                	fsw	fs0,92(a5)
    198c:	4100                	lw	s0,0(a0)
    198e:	8320                	.insn	2, 0x8320
    1990:	0000                	unimp
    1992:	6780                	flw	fs0,8(a5)
    1994:	1100                	addi	s0,sp,160
    1996:	2322                	fld	ft6,8(sp)
    1998:	2006                	fld	ft0,64(sp)
    199a:	1305                	addi	t1,t1,-31
    199c:	efe00fe7          	jalr	t6,-258(zero) # 0xfffffefe
    19a0:	7006                	flw	ft0,96(sp)
    19a2:	1305                	addi	t1,t1,-31
    19a4:	8fe6                	mv	t6,s9
    19a6:	efe0                	fsw	fs0,92(a5)
    19a8:	5006                	.insn	2, 0x5006
    19aa:	1305                	addi	t1,t1,-31
    19ac:	0fe6                	slli	t6,t6,0x19
    19ae:	efe0                	fsw	fs0,92(a5)
    19b0:	e002                	fsw	ft0,0(sp)
    19b2:	1305                	addi	t1,t1,-31
    19b4:	8fe5                	and	a5,a5,s1
    19b6:	efe0                	fsw	fs0,92(a5)
    19b8:	e002                	fsw	ft0,0(sp)
    19ba:	1305                	addi	t1,t1,-31
    19bc:	0fe5                	addi	t6,t6,25
    19be:	efe0                	fsw	fs0,92(a5)
    19c0:	e002                	fsw	ft0,0(sp)
    19c2:	1305                	addi	t1,t1,-31
    19c4:	8fe4                	.insn	2, 0x8fe4
    19c6:	efe0                	fsw	fs0,92(a5)
    19c8:	1000                	addi	s0,sp,32
    19ca:	9302                	jalr	t1
    19cc:	0000                	unimp
    19ce:	62001303          	lh	t1,1568(zero) # 0x620
    19d2:	63d6                	flw	ft7,84(sp)
    19d4:	000a                	c.slli	zero,0x2
    19d6:	6f00                	flw	fs0,24(a4)
    19d8:	c000                	sw	s0,0(s0)
    19da:	6f00                	flw	fs0,24(a4)
    19dc:	62fe                	flw	ft5,220(sp)
    19de:	e3de                	fsw	fs7,196(sp)
    19e0:	4009                	c.li	zero,2
    19e2:	6f00                	flw	fs0,24(a4)
    19e4:	1000                	addi	s0,sp,32
    19e6:	9302                	jalr	t1
    19e8:	f0ff                	.insn	2, 0xf0ff
    19ea:	62001303          	lh	t1,1568(zero) # 0x620
    19ee:	63d6                	flw	ft7,84(sp)
    19f0:	4008                	lw	a0,0(s0)
    19f2:	6f00                	flw	fs0,24(a4)
    19f4:	c000                	sw	s0,0(s0)
    19f6:	6f00                	flw	fs0,24(a4)
    19f8:	62fe                	flw	ft5,220(sp)
    19fa:	e3de                	fsw	fs7,196(sp)
    19fc:	6f008007          	.insn	4, 0x6f008007
    1a00:	f0ff                	.insn	2, 0xf0ff
    1a02:	9302                	jalr	t1
    1a04:	1000                	addi	s0,sp,32
    1a06:	62061303          	lh	t1,1568(a2)
    1a0a:	63d6                	flw	ft7,84(sp)
    1a0c:	8000                	.insn	2, 0x8000
    1a0e:	6f00                	flw	fs0,24(a4)
    1a10:	4006                	.insn	2, 0x4006
    1a12:	6f00                	flw	fs0,24(a4)
    1a14:	62fe                	flw	ft5,220(sp)
    1a16:	e3de                	fsw	fs7,196(sp)
    1a18:	e0ff 9302 f0ff 1303 	.insn	22, 0x62fe6f00c0046f00800063da62041303f0ff9302e0ff
    1a20:	6204 63da 8000 6f00 
    1a28:	c004 6f00 62fe 
    1a2e:	e3de                	fsw	fs7,196(sp)
    1a30:	1000                	addi	s0,sp,32
    1a32:	9302                	jalr	t1
    1a34:	5200                	lw	s0,32(a2)
    1a36:	63d6                	flw	ft7,84(sp)
    1a38:	6f00c003          	lbu	zero,1776(ra)
    1a3c:	c000                	sw	s0,0(s0)
    1a3e:	6f00                	flw	fs0,24(a4)
    1a40:	52fe                	lw	t0,252(sp)
    1a42:	e3de                	fsw	fs7,196(sp)
    1a44:	6f000003          	lb	zero,1776(zero) # 0x6f0
    1a48:	1000                	addi	s0,sp,32
    1a4a:	9302                	jalr	t1
    1a4c:	0000                	unimp
    1a4e:	1300                	addi	s0,sp,416
    1a50:	0000                	unimp
    1a52:	1300                	addi	s0,sp,416
    1a54:	f0ff                	.insn	2, 0xf0ff
    1a56:	00001303          	lh	t1,0(zero) # 0x0
    1a5a:	1300                	addi	s0,sp,416
    1a5c:	6200                	flw	fs0,0(a2)
    1a5e:	63d6                	flw	ft7,84(sp)
    1a60:	4001                	c.li	zero,0
    1a62:	6f00                	flw	fs0,24(a4)
    1a64:	c000                	sw	s0,0(s0)
    1a66:	6f00                	flw	fs0,24(a4)
    1a68:	62fe                	flw	ft5,220(sp)
    1a6a:	e3de                	fsw	fs7,196(sp)
    1a6c:	8000                	.insn	2, 0x8000
    1a6e:	6f00                	flw	fs0,24(a4)
    1a70:	c000                	sw	s0,0(s0)
    1a72:	6f00                	flw	fs0,24(a4)
    1a74:	4fe0                	lw	s0,92(a5)
    1a76:	efe0                	fsw	fs0,92(a5)
    1a78:	8000                	.insn	2, 0x8000
    1a7a:	6f00                	flw	fs0,24(a4)
    1a7c:	8fda                	mv	t6,s6
    1a7e:	efe0                	fsw	fs0,92(a5)
    1a80:	4100                	lw	s0,0(a0)
    1a82:	8320                	.insn	2, 0x8320
    1a84:	0000                	unimp
    1a86:	6780                	flw	fs0,8(a5)
    1a88:	1100                	addi	s0,sp,160
    1a8a:	2322                	fld	ft6,8(sp)
    1a8c:	2006                	fld	ft0,64(sp)
    1a8e:	1305                	addi	t1,t1,-31
    1a90:	efe0cfd7          	.insn	4, 0xefe0cfd7
    1a94:	7006                	flw	ft0,96(sp)
    1a96:	1305                	addi	t1,t1,-31
    1a98:	efe04fd7          	.insn	4, 0xefe04fd7
    1a9c:	5006                	.insn	2, 0x5006
    1a9e:	1305                	addi	t1,t1,-31
    1aa0:	cfd6                	sw	s5,220(sp)
    1aa2:	efe0                	fsw	fs0,92(a5)
    1aa4:	13055007          	.insn	4, 0x13055007
    1aa8:	4fd6                	lw	t6,84(sp)
    1aaa:	efe0                	fsw	fs0,92(a5)
    1aac:	e002                	fsw	ft0,0(sp)
    1aae:	1305                	addi	t1,t1,-31
    1ab0:	cfd5                	beqz	a5,0x1b6c
    1ab2:	efe0                	fsw	fs0,92(a5)
    1ab4:	e002                	fsw	ft0,0(sp)
    1ab6:	1305                	addi	t1,t1,-31
    1ab8:	4fd5                	li	t6,21
    1aba:	efe0                	fsw	fs0,92(a5)
    1abc:	1000                	addi	s0,sp,32
    1abe:	9302                	jalr	t1
    1ac0:	0000                	unimp
    1ac2:	62001303          	lh	t1,1568(zero) # 0x620
    1ac6:	63f6                	flw	ft7,92(sp)
    1ac8:	000a                	c.slli	zero,0x2
    1aca:	6f00                	flw	fs0,24(a4)
    1acc:	c000                	sw	s0,0(s0)
    1ace:	6f00                	flw	fs0,24(a4)
    1ad0:	62fe                	flw	ft5,220(sp)
    1ad2:	e3fe                	fsw	ft11,196(sp)
    1ad4:	4009                	c.li	zero,2
    1ad6:	6f00                	flw	fs0,24(a4)
    1ad8:	f0ff                	.insn	2, 0xf0ff
    1ada:	9302                	jalr	t1
    1adc:	1000                	addi	s0,sp,32
    1ade:	62001303          	lh	t1,1568(zero) # 0x620
    1ae2:	63f6                	flw	ft7,92(sp)
    1ae4:	4008                	lw	a0,0(s0)
    1ae6:	6f00                	flw	fs0,24(a4)
    1ae8:	c000                	sw	s0,0(s0)
    1aea:	6f00                	flw	fs0,24(a4)
    1aec:	62fe                	flw	ft5,220(sp)
    1aee:	e3fe                	fsw	ft11,196(sp)
    1af0:	6f008007          	.insn	4, 0x6f008007
    1af4:	1000                	addi	s0,sp,32
    1af6:	9302                	jalr	t1
    1af8:	f0ff                	.insn	2, 0xf0ff
    1afa:	62061303          	lh	t1,1568(a2)
    1afe:	63f6                	flw	ft7,92(sp)
    1b00:	8000                	.insn	2, 0x8000
    1b02:	6f00                	flw	fs0,24(a4)
    1b04:	4006                	.insn	2, 0x4006
    1b06:	6f00                	flw	fs0,24(a4)
    1b08:	62fe                	flw	ft5,220(sp)
    1b0a:	e3fe                	fsw	ft11,196(sp)
    1b0c:	e0ff 9302 f0ff 1303 	.insn	22, 0x62fe6f00c0046f00800063fa62041303f0ff9302e0ff
    1b14:	6204 63fa 8000 6f00 
    1b1c:	c004 6f00 62fe 
    1b22:	e3fe                	fsw	ft11,196(sp)
    1b24:	1000                	addi	s0,sp,32
    1b26:	9302                	jalr	t1
    1b28:	5200                	lw	s0,32(a2)
    1b2a:	63f6                	flw	ft7,92(sp)
    1b2c:	6f00c003          	lbu	zero,1776(ra)
    1b30:	c000                	sw	s0,0(s0)
    1b32:	6f00                	flw	fs0,24(a4)
    1b34:	52fe                	lw	t0,252(sp)
    1b36:	e3fe                	fsw	ft11,196(sp)
    1b38:	6f000003          	lb	zero,1776(zero) # 0x6f0
    1b3c:	f0ff                	.insn	2, 0xf0ff
    1b3e:	9302                	jalr	t1
    1b40:	0000                	unimp
    1b42:	1300                	addi	s0,sp,416
    1b44:	0000                	unimp
    1b46:	1300                	addi	s0,sp,416
    1b48:	1000                	addi	s0,sp,32
    1b4a:	00001303          	lh	t1,0(zero) # 0x0
    1b4e:	1300                	addi	s0,sp,416
    1b50:	6200                	flw	fs0,0(a2)
    1b52:	63f6                	flw	ft7,92(sp)
    1b54:	4001                	c.li	zero,0
    1b56:	6f00                	flw	fs0,24(a4)
    1b58:	c000                	sw	s0,0(s0)
    1b5a:	6f00                	flw	fs0,24(a4)
    1b5c:	62fe                	flw	ft5,220(sp)
    1b5e:	e3fe                	fsw	ft11,196(sp)
    1b60:	8000                	.insn	2, 0x8000
    1b62:	6f00                	flw	fs0,24(a4)
    1b64:	c000                	sw	s0,0(s0)
    1b66:	6f00                	flw	fs0,24(a4)
    1b68:	0fd1                	addi	t6,t6,20
    1b6a:	efe0                	fsw	fs0,92(a5)
    1b6c:	8000                	.insn	2, 0x8000
    1b6e:	6f00                	flw	fs0,24(a4)
    1b70:	efe04fcb          	.insn	4, 0xefe04fcb
    1b74:	4100                	lw	s0,0(a0)
    1b76:	8320                	.insn	2, 0x8320
    1b78:	0000                	unimp
    1b7a:	6780                	flw	fs0,8(a5)
    1b7c:	1100                	addi	s0,sp,160
    1b7e:	2322                	fld	ft6,8(sp)
    1b80:	a006                	fsd	ft1,0(sp)
    1b82:	1305                	addi	t1,t1,-31
    1b84:	8fc8                	.insn	2, 0x8fc8
    1b86:	efe0                	fsw	fs0,92(a5)
    1b88:	1006                	c.slli	zero,0x21
    1b8a:	1305                	addi	t1,t1,-31
    1b8c:	0fc8                	addi	a0,sp,980
    1b8e:	efe0                	fsw	fs0,92(a5)
    1b90:	c006                	sw	ra,0(sp)
    1b92:	1305                	addi	t1,t1,-31
    1b94:	efe08fc7          	.insn	4, 0xefe08fc7
    1b98:	e002                	fsw	ft0,0(sp)
    1b9a:	1305                	addi	t1,t1,-31
    1b9c:	efe00fc7          	.insn	4, 0xefe00fc7
    1ba0:	e002                	fsw	ft0,0(sp)
    1ba2:	1305                	addi	t1,t1,-31
    1ba4:	8fc6                	mv	t6,a7
    1ba6:	efe0                	fsw	fs0,92(a5)
    1ba8:	e002                	fsw	ft0,0(sp)
    1baa:	1305                	addi	t1,t1,-31
    1bac:	0fc6                	slli	t6,t6,0x11
    1bae:	efe0                	fsw	fs0,92(a5)
    1bb0:	c000                	sw	s0,0(s0)
    1bb2:	6f00                	flw	fs0,24(a4)
    1bb4:	4fcc                	lw	a1,28(a5)
    1bb6:	efe0                	fsw	fs0,92(a5)
    1bb8:	8000                	.insn	2, 0x8000
    1bba:	6f00                	flw	fs0,24(a4)
    1bbc:	8fc6                	mv	t6,a7
    1bbe:	efe0                	fsw	fs0,92(a5)
    1bc0:	4100                	lw	s0,0(a0)
    1bc2:	8320                	.insn	2, 0x8320
    1bc4:	0000                	unimp
    1bc6:	6780                	flw	fs0,8(a5)
    1bc8:	1100                	addi	s0,sp,160
    1bca:	2322                	fld	ft6,8(sp)
    1bcc:	a006                	fsd	ft1,0(sp)
    1bce:	1305                	addi	t1,t1,-31
    1bd0:	efe0cfc3          	.insn	4, 0xefe0cfc3
    1bd4:	1006                	c.slli	zero,0x21
    1bd6:	1305                	addi	t1,t1,-31
    1bd8:	efe04fc3          	.insn	4, 0xefe04fc3
    1bdc:	c006                	sw	ra,0(sp)
    1bde:	1305                	addi	t1,t1,-31
    1be0:	cfc2                	sw	a6,220(sp)
    1be2:	efe0                	fsw	fs0,92(a5)
    1be4:	13052007          	flw	ft0,304(a0)
    1be8:	4fc2                	lw	t6,16(sp)
    1bea:	efe0                	fsw	fs0,92(a5)
    1bec:	e002                	fsw	ft0,0(sp)
    1bee:	1305                	addi	t1,t1,-31
    1bf0:	cfc1                	beqz	a5,0x1c88
    1bf2:	efe0                	fsw	fs0,92(a5)
    1bf4:	e002                	fsw	ft0,0(sp)
    1bf6:	1305                	addi	t1,t1,-31
    1bf8:	4fc1                	li	t6,16
    1bfa:	efe0                	fsw	fs0,92(a5)
    1bfc:	c000                	sw	s0,0(s0)
    1bfe:	6f00                	flw	fs0,24(a4)
    1c00:	efe08fc7          	.insn	4, 0xefe08fc7
    1c04:	8000                	.insn	2, 0x8000
    1c06:	6f00                	flw	fs0,24(a4)
    1c08:	cfc1                	beqz	a5,0x1ca0
    1c0a:	efe0                	fsw	fs0,92(a5)
    1c0c:	4100                	lw	s0,0(a0)
    1c0e:	8320                	.insn	2, 0x8320
    1c10:	0000                	unimp
    1c12:	6780                	flw	fs0,8(a5)
    1c14:	1100                	addi	s0,sp,160
    1c16:	2322                	fld	ft6,8(sp)
    1c18:	d006                	sw	ra,32(sp)
    1c1a:	1305                	addi	t1,t1,-31
    1c1c:	efe00fbf 13051006 	.insn	8, 0x13051006efe00fbf
    1c24:	8fbe                	mv	t6,a5
    1c26:	efe0                	fsw	fs0,92(a5)
    1c28:	c006                	sw	ra,0(sp)
    1c2a:	1305                	addi	t1,t1,-31
    1c2c:	0fbe                	slli	t6,t6,0xf
    1c2e:	efe0                	fsw	fs0,92(a5)
    1c30:	7006                	flw	ft0,96(sp)
    1c32:	1305                	addi	t1,t1,-31
    1c34:	8fbd                	xor	a5,a5,a5
    1c36:	efe0                	fsw	fs0,92(a5)
    1c38:	e006                	fsw	ft1,0(sp)
    1c3a:	1305                	addi	t1,t1,-31
    1c3c:	0fbd                	addi	t6,t6,15
    1c3e:	efe0                	fsw	fs0,92(a5)
    1c40:	e002                	fsw	ft0,0(sp)
    1c42:	1305                	addi	t1,t1,-31
    1c44:	8fbc                	.insn	2, 0x8fbc
    1c46:	efe0                	fsw	fs0,92(a5)
    1c48:	3412                	fld	fs0,288(sp)
    1c4a:	b758                	fsd	fa4,168(a4)
    1c4c:	93888867          	jalr	a6,-1736(a7)
    1c50:	adde                	fsd	fs7,216(sp)
    1c52:	37c8                	fld	fa0,168(a5)
    1c54:	f8ee                	fsw	fs11,112(sp)
    1c56:	1308                	addi	a0,sp,416
    1c58:	0000                	unimp
    1c5a:	03003733          	mulhu	a4,zero,a6
    1c5e:	13011303          	lh	t1,304(sp)
    1c62:	2320                	fld	fs0,64(a4)
    1c64:	0301                	addi	t1,t1,0
    1c66:	2322                	fld	ft6,8(sp)
    1c68:	efbe                	fsw	fa5,220(sp)
    1c6a:	b718                	fsd	fa4,40(a4)
    1c6c:	93884823          	.insn	4, 0x93884823
    1c70:	2300                	fld	fs0,0(a4)
    1c72:	8322                	mv	t1,s0
    1c74:	5800                	lw	s0,48(s0)
    1c76:	6394                	flw	fa3,0(a5)
    1c78:	c000                	sw	s0,0(s0)
    1c7a:	6f00                	flw	fs0,24(a4)
    1c7c:	efe0cfbf 6f008000 	.insn	8, 0x6f008000efe0cfbf
    1c84:	0fba                	slli	t6,t6,0xe
    1c86:	efe0                	fsw	fs0,92(a5)
    1c88:	4100                	lw	s0,0(a0)
    1c8a:	8320                	.insn	2, 0x8320
    1c8c:	0000                	unimp
    1c8e:	6780                	flw	fs0,8(a5)
    1c90:	c000                	sw	s0,0(s0)
    1c92:	6f00                	flw	fs0,24(a4)
    1c94:	4fbe                	lw	t6,204(sp)
    1c96:	efe0                	fsw	fs0,92(a5)
    1c98:	8000                	.insn	2, 0x8000
    1c9a:	6f00                	flw	fs0,24(a4)
    1c9c:	cfbd                	beqz	a5,0x1d1a
    1c9e:	efe0                	fsw	fs0,92(a5)
    1ca0:	4100                	lw	s0,0(a0)
    1ca2:	8320                	.insn	2, 0x8320
    1ca4:	0000                	unimp
    1ca6:	6780                	flw	fs0,8(a5)
    1ca8:	1100                	addi	s0,sp,160
    1caa:	2322                	fld	ft6,8(sp)
    1cac:	9006                	c.add	zero,ra
    1cae:	1305                	addi	t1,t1,-31
    1cb0:	cfb5                	beqz	a5,0x1d2c
    1cb2:	efe0                	fsw	fs0,92(a5)
    1cb4:	f006                	fsw	ft1,32(sp)
    1cb6:	1305                	addi	t1,t1,-31
    1cb8:	4fb5                	li	t6,13
    1cba:	efe0                	fsw	fs0,92(a5)
    1cbc:	13053007          	fld	ft0,304(a0)
    1cc0:	cfb4                	sw	a3,88(a5)
    1cc2:	efe0                	fsw	fs0,92(a5)
    1cc4:	13057007          	.insn	4, 0x13057007
    1cc8:	4fb4                	lw	a3,88(a5)
    1cca:	efe0                	fsw	fs0,92(a5)
    1ccc:	e002                	fsw	ft0,0(sp)
    1cce:	1305                	addi	t1,t1,-31
    1cd0:	efe0cfb3          	.insn	4, 0xefe0cfb3
    1cd4:	e002                	fsw	ft0,0(sp)
    1cd6:	1305                	addi	t1,t1,-31
    1cd8:	efe04fb3          	.insn	4, 0xefe04fb3
    1cdc:	0110                	addi	a2,sp,128
    1cde:	03003703          	.insn	4, 0x03003703
    1ce2:	03001303          	lh	t1,48(zero) # 0x30
    1ce6:	8322                	mv	t1,s0
    1ce8:	3412                	fld	fs0,288(sp)
    1cea:	b758                	fsd	fa4,168(a4)
    1cec:	93888867          	jalr	a6,-1736(a7)
    1cf0:	5800                	lw	s0,48(s0)
    1cf2:	6394                	flw	fa3,0(a5)
    1cf4:	c000                	sw	s0,0(s0)
    1cf6:	6f00                	flw	fs0,24(a4)
    1cf8:	0fb8                	addi	a4,sp,984
    1cfa:	efe0                	fsw	fs0,92(a5)
    1cfc:	8000                	.insn	2, 0x8000
    1cfe:	6f00                	flw	fs0,24(a4)
    1d00:	4fb2                	lw	t6,12(sp)
    1d02:	efe0                	fsw	fs0,92(a5)
    1d04:	4100                	lw	s0,0(a0)
    1d06:	8320                	.insn	2, 0x8320
    1d08:	0000                	unimp
    1d0a:	6780                	flw	fs0,8(a5)
	...
